
level_1.elf:     file format elf32-avr


Disassembly of section .text:

00000000 <__vectors>:
       0:	0c 94 f2 00 	jmp	0x1e4	; 0x1e4 <__ctors_end>
       4:	0c 94 0f 01 	jmp	0x21e	; 0x21e <__bad_interrupt>
       8:	0c 94 0f 01 	jmp	0x21e	; 0x21e <__bad_interrupt>
       c:	0c 94 0f 01 	jmp	0x21e	; 0x21e <__bad_interrupt>
      10:	0c 94 0f 01 	jmp	0x21e	; 0x21e <__bad_interrupt>
      14:	0c 94 0f 01 	jmp	0x21e	; 0x21e <__bad_interrupt>
      18:	0c 94 0f 01 	jmp	0x21e	; 0x21e <__bad_interrupt>
      1c:	0c 94 0f 01 	jmp	0x21e	; 0x21e <__bad_interrupt>
      20:	0c 94 0f 01 	jmp	0x21e	; 0x21e <__bad_interrupt>
      24:	0c 94 0f 01 	jmp	0x21e	; 0x21e <__bad_interrupt>
      28:	0c 94 0f 01 	jmp	0x21e	; 0x21e <__bad_interrupt>
      2c:	0c 94 0f 01 	jmp	0x21e	; 0x21e <__bad_interrupt>
      30:	0c 94 0f 01 	jmp	0x21e	; 0x21e <__bad_interrupt>
      34:	0c 94 af 04 	jmp	0x95e	; 0x95e <__vector_13>
      38:	0c 94 0f 01 	jmp	0x21e	; 0x21e <__bad_interrupt>
      3c:	0c 94 0f 01 	jmp	0x21e	; 0x21e <__bad_interrupt>
      40:	0c 94 0f 01 	jmp	0x21e	; 0x21e <__bad_interrupt>
      44:	0c 94 0c 02 	jmp	0x418	; 0x418 <__vector_17>
      48:	0c 94 0f 01 	jmp	0x21e	; 0x21e <__bad_interrupt>
      4c:	0c 94 0f 01 	jmp	0x21e	; 0x21e <__bad_interrupt>
      50:	0c 94 0f 01 	jmp	0x21e	; 0x21e <__bad_interrupt>
      54:	0c 94 0f 01 	jmp	0x21e	; 0x21e <__bad_interrupt>
      58:	0c 94 0f 01 	jmp	0x21e	; 0x21e <__bad_interrupt>
      5c:	0c 94 0f 01 	jmp	0x21e	; 0x21e <__bad_interrupt>
      60:	0c 94 0f 01 	jmp	0x21e	; 0x21e <__bad_interrupt>
      64:	0c 94 0f 01 	jmp	0x21e	; 0x21e <__bad_interrupt>
      68:	47 0c       	add	r4, r7
      6a:	1c 0c       	add	r1, r12
      6c:	0d 0e       	add	r0, r29
      6e:	30 0f       	add	r19, r16
      70:	33 0f       	add	r19, r19
      72:	63 0c       	add	r6, r3
      74:	b8 0c       	add	r11, r8
      76:	bf 0c       	add	r11, r15
      78:	c6 0c       	add	r12, r6
      7a:	0f 0d       	add	r16, r15
      7c:	3d 0d       	add	r19, r13
      7e:	ba 0d       	add	r27, r10
      80:	c1 0d       	add	r28, r1
      82:	c8 0d       	add	r28, r8
      84:	e9 0d       	add	r30, r9
      86:	29 0e       	add	r2, r25
      88:	5b 0e       	add	r5, r27
      8a:	5b 0e       	add	r5, r27
      8c:	5b 0e       	add	r5, r27
      8e:	5b 0e       	add	r5, r27
      90:	5b 0e       	add	r5, r27
      92:	5b 0e       	add	r5, r27
      94:	5b 0e       	add	r5, r27
      96:	5b 0e       	add	r5, r27
      98:	5b 0e       	add	r5, r27
      9a:	5b 0e       	add	r5, r27
      9c:	5b 0e       	add	r5, r27
      9e:	5b 0e       	add	r5, r27
      a0:	5b 0e       	add	r5, r27
      a2:	5b 0e       	add	r5, r27
      a4:	5b 0e       	add	r5, r27
      a6:	5b 0e       	add	r5, r27
      a8:	42 0e       	add	r4, r18
      aa:	5b 0e       	add	r5, r27
      ac:	5b 0e       	add	r5, r27
      ae:	5b 0e       	add	r5, r27
      b0:	5b 0e       	add	r5, r27
      b2:	5b 0e       	add	r5, r27
      b4:	5b 0e       	add	r5, r27
      b6:	5b 0e       	add	r5, r27
      b8:	12 0c       	add	r1, r2
      ba:	5b 0e       	add	r5, r27
      bc:	5b 0e       	add	r5, r27
      be:	5b 0e       	add	r5, r27
      c0:	5b 0e       	add	r5, r27
      c2:	5b 0e       	add	r5, r27
      c4:	5b 0e       	add	r5, r27
      c6:	5b 0e       	add	r5, r27
      c8:	5b 0e       	add	r5, r27
      ca:	5b 0e       	add	r5, r27
      cc:	29 0e       	add	r2, r25
      ce:	5b 0e       	add	r5, r27
      d0:	5b 0e       	add	r5, r27
      d2:	59 0c       	add	r5, r9
      d4:	2d 0d       	add	r18, r13
      d6:	b7 0e       	add	r11, r23
      d8:	bc 0e       	add	r11, r28
      da:	c1 0e       	add	r12, r17
      dc:	c6 0e       	add	r12, r22
      de:	cd 0e       	add	r12, r29
      e0:	d4 0e       	add	r13, r20
      e2:	db 0e       	add	r13, r27
      e4:	e2 0e       	add	r14, r18
      e6:	e9 0e       	add	r14, r25
      e8:	f5 0e       	add	r15, r21
      ea:	01 0f       	add	r16, r17
      ec:	0d 0f       	add	r16, r29
      ee:	12 0f       	add	r17, r18
      f0:	1b 0f       	add	r17, r27
      f2:	22 0f       	add	r18, r18
      f4:	29 0f       	add	r18, r25

000000f6 <__trampolines_end>:
      f6:	46 49       	sbci	r20, 0x96	; 150
      f8:	45 4c       	sbci	r20, 0xC5	; 197
      fa:	44 20       	and	r4, r4
      fc:	53 55       	subi	r21, 0x53	; 83
      fe:	50 50       	subi	r21, 0x00	; 0
     100:	4f 52       	subi	r20, 0x2F	; 47
     102:	54 20       	and	r5, r4
     104:	4f 4e       	sbci	r20, 0xEF	; 239
     106:	4c 59       	subi	r20, 0x9C	; 156
     108:	20 55       	subi	r18, 0x50	; 80
     10a:	4e 41       	sbci	r20, 0x1E	; 30
     10c:	55 54       	subi	r21, 0x45	; 69
     10e:	48 4f       	sbci	r20, 0xF8	; 248
     110:	52 49       	sbci	r21, 0x92	; 146
     112:	5a 45       	sbci	r21, 0x5A	; 90
     114:	44 20       	and	r4, r4
     116:	55 53       	subi	r21, 0x35	; 53
     118:	45 20       	and	r4, r5
     11a:	50 52       	subi	r21, 0x20	; 32
     11c:	4f 48       	sbci	r20, 0x8F	; 143
     11e:	49 42       	sbci	r20, 0x29	; 41
     120:	49 54       	subi	r20, 0x49	; 73
     122:	45 44       	sbci	r20, 0x45	; 69
     124:	0a 28       	or	r0, r10
     126:	63 29       	or	r22, r3
     128:	20 31       	cpi	r18, 0x10	; 16
     12a:	39 39       	cpi	r19, 0x99	; 153
     12c:	33 2d       	mov	r19, r3
     12e:	32 30       	cpi	r19, 0x02	; 2
     130:	31 35       	cpi	r19, 0x51	; 81
     132:	20 33       	cpi	r18, 0x30	; 48
     134:	35 3d       	cpi	r19, 0xD5	; 213
     136:	47 20       	and	r4, r7
     138:	54 65       	ori	r21, 0x54	; 84
     13a:	63 68       	ori	r22, 0x83	; 131
     13c:	6e 6f       	ori	r22, 0xFE	; 254
     13e:	6c 6f       	ori	r22, 0xFC	; 252
     140:	67 69       	ori	r22, 0x97	; 151
     142:	65 73       	andi	r22, 0x35	; 53
     144:	0a 2d       	mov	r16, r10
     146:	2d 2d       	mov	r18, r13
     148:	2d 0a       	sbc	r2, r29
  ...

0000014b <EntryDebug>:
     14b:	5b 65 6e 74 72 79 70 6f 69 6e 74 3a 20 25 6c 64     [entrypoint: %ld
     15b:	2c 20 74 78 74 3a 20 25 70 2c 20 6d 65 6d 3a 20     , txt: %p, mem:
     16b:	25 70 5d 0a 00                                      %p]..

00000170 <opcodes>:
     170:	4c 49 42 41 4c 45 53 57 50 4f 49 4d 4a 4d 4a 53     LIBALESWPOIMJMJS
     180:	42 5a 42 4e 45 4e 41 44 4c 45 4c 49 4c 43 53 49     BZBNENADLELILCSI
     190:	53 43 50 53 4f 52 58 4f 41 4e 45 51 4e 45 4c 54     SCPSORXOANEQNELT
     1a0:	47 54 4c 45 47 45 53 48 53 48 41 44 53 55 4d 55     GTLEGESHSHADSUMU
     1b0:	44 49 4d 4f 49 4e 4f 50 52 45 43 4c 50 52 4d 41     DIMOINOPRECLPRMA
     1c0:	4d 53 4d 43 45 58 4d 4f 4d 4f 4d 4f 4d 4f 4d 4f     MSMCEXMOMOMOMOMO
     1d0:	4d 4f 4c 4f 53 54 53 54 50 55 4c 45 4c 45 4a 53     MOLOSTSTPULELEJS
     1e0:	52 45 00 00                                         RE..

000001e4 <__ctors_end>:
     1e4:	11 24       	eor	r1, r1
     1e6:	1f be       	out	0x3f, r1	; 63
     1e8:	cf ef       	ldi	r28, 0xFF	; 255
     1ea:	d8 e0       	ldi	r29, 0x08	; 8
     1ec:	de bf       	out	0x3e, r29	; 62
     1ee:	cd bf       	out	0x3d, r28	; 61

000001f0 <__do_copy_data>:
     1f0:	14 e0       	ldi	r17, 0x04	; 4
     1f2:	a0 e0       	ldi	r26, 0x00	; 0
     1f4:	b1 e0       	ldi	r27, 0x01	; 1
     1f6:	ea ea       	ldi	r30, 0xAA	; 170
     1f8:	fc e3       	ldi	r31, 0x3C	; 60
     1fa:	02 c0       	rjmp	.+4      	; 0x200 <__do_copy_data+0x10>
     1fc:	05 90       	lpm	r0, Z+
     1fe:	0d 92       	st	X+, r0
     200:	ae 32       	cpi	r26, 0x2E	; 46
     202:	b1 07       	cpc	r27, r17
     204:	d9 f7       	brne	.-10     	; 0x1fc <__do_copy_data+0xc>

00000206 <__do_clear_bss>:
     206:	19 e0       	ldi	r17, 0x09	; 9
     208:	ae e2       	ldi	r26, 0x2E	; 46
     20a:	b4 e0       	ldi	r27, 0x04	; 4
     20c:	01 c0       	rjmp	.+2      	; 0x210 <.do_clear_bss_start>

0000020e <.do_clear_bss_loop>:
     20e:	1d 92       	st	X+, r1

00000210 <.do_clear_bss_start>:
     210:	a2 39       	cpi	r26, 0x92	; 146
     212:	b1 07       	cpc	r27, r17
     214:	e1 f7       	brne	.-8      	; 0x20e <.do_clear_bss_loop>
     216:	0e 94 72 18 	call	0x30e4	; 0x30e4 <main>
     21a:	0c 94 53 1e 	jmp	0x3ca6	; 0x3ca6 <_exit>

0000021e <__bad_interrupt>:
     21e:	0c 94 00 00 	jmp	0	; 0x0 <__vectors>

00000222 <send>:
     222:	80 93 53 05 	sts	0x0553, r24
     226:	83 e0       	ldi	r24, 0x03	; 3
     228:	84 0f       	add	r24, r20
     22a:	80 93 54 05 	sts	0x0554, r24
     22e:	a5 e5       	ldi	r26, 0x55	; 85
     230:	b5 e0       	ldi	r27, 0x05	; 5
     232:	fb 01       	movw	r30, r22
     234:	cf 01       	movw	r24, r30
     236:	86 1b       	sub	r24, r22
     238:	97 0b       	sbc	r25, r23
     23a:	84 17       	cp	r24, r20
     23c:	95 07       	cpc	r25, r21
     23e:	1c f4       	brge	.+6      	; 0x246 <send+0x24>
     240:	81 91       	ld	r24, Z+
     242:	8d 93       	st	X+, r24
     244:	f7 cf       	rjmp	.-18     	; 0x234 <send+0x12>
     246:	ca 01       	movw	r24, r20
     248:	57 ff       	sbrs	r21, 7
     24a:	02 c0       	rjmp	.+4      	; 0x250 <send+0x2e>
     24c:	80 e0       	ldi	r24, 0x00	; 0
     24e:	90 e0       	ldi	r25, 0x00	; 0
     250:	fc 01       	movw	r30, r24
     252:	ed 5a       	subi	r30, 0xAD	; 173
     254:	fa 4f       	sbci	r31, 0xFA	; 250
     256:	12 82       	std	Z+2, r1	; 0x02
     258:	ba 01       	movw	r22, r20
     25a:	6d 5f       	subi	r22, 0xFD	; 253
     25c:	7f 4f       	sbci	r23, 0xFF	; 255
     25e:	83 e5       	ldi	r24, 0x53	; 83
     260:	95 e0       	ldi	r25, 0x05	; 5
     262:	0c 94 6e 11 	jmp	0x22dc	; 0x22dc <spi_write>

00000266 <timer_do>:
     266:	0f 93       	push	r16
     268:	1f 93       	push	r17
     26a:	cf 93       	push	r28
     26c:	df 93       	push	r29
     26e:	cd b7       	in	r28, 0x3d	; 61
     270:	de b7       	in	r29, 0x3e	; 62
     272:	a8 97       	sbiw	r28, 0x28	; 40
     274:	0f b6       	in	r0, 0x3f	; 63
     276:	f8 94       	cli
     278:	de bf       	out	0x3e, r29	; 62
     27a:	0f be       	out	0x3f, r0	; 63
     27c:	cd bf       	out	0x3d, r28	; 61
     27e:	80 91 45 04 	lds	r24, 0x0445
     282:	8f 93       	push	r24
     284:	80 91 44 04 	lds	r24, 0x0444
     288:	8f 93       	push	r24
     28a:	8c e8       	ldi	r24, 0x8C	; 140
     28c:	91 e0       	ldi	r25, 0x01	; 1
     28e:	9f 93       	push	r25
     290:	8f 93       	push	r24
     292:	8e 01       	movw	r16, r28
     294:	0f 5f       	subi	r16, 0xFF	; 255
     296:	1f 4f       	sbci	r17, 0xFF	; 255
     298:	1f 93       	push	r17
     29a:	0f 93       	push	r16
     29c:	0e 94 82 1b 	call	0x3704	; 0x3704 <sprintf>
     2a0:	f8 01       	movw	r30, r16
     2a2:	01 90       	ld	r0, Z+
     2a4:	00 20       	and	r0, r0
     2a6:	e9 f7       	brne	.-6      	; 0x2a2 <timer_do+0x3c>
     2a8:	af 01       	movw	r20, r30
     2aa:	41 50       	subi	r20, 0x01	; 1
     2ac:	51 09       	sbc	r21, r1
     2ae:	40 1b       	sub	r20, r16
     2b0:	51 0b       	sbc	r21, r17
     2b2:	b8 01       	movw	r22, r16
     2b4:	81 e6       	ldi	r24, 0x61	; 97
     2b6:	0e 94 11 01 	call	0x222	; 0x222 <send>
     2ba:	0f 90       	pop	r0
     2bc:	0f 90       	pop	r0
     2be:	0f 90       	pop	r0
     2c0:	0f 90       	pop	r0
     2c2:	0f 90       	pop	r0
     2c4:	0f 90       	pop	r0
     2c6:	a8 96       	adiw	r28, 0x28	; 40
     2c8:	0f b6       	in	r0, 0x3f	; 63
     2ca:	f8 94       	cli
     2cc:	de bf       	out	0x3e, r29	; 62
     2ce:	0f be       	out	0x3f, r0	; 63
     2d0:	cd bf       	out	0x3d, r28	; 61
     2d2:	df 91       	pop	r29
     2d4:	cf 91       	pop	r28
     2d6:	1f 91       	pop	r17
     2d8:	0f 91       	pop	r16
     2da:	08 95       	ret

000002dc <spi_write_fix>:
     2dc:	ff 92       	push	r15
     2de:	0f 93       	push	r16
     2e0:	1f 93       	push	r17
     2e2:	cf 93       	push	r28
     2e4:	df 93       	push	r29
     2e6:	cd b7       	in	r28, 0x3d	; 61
     2e8:	de b7       	in	r29, 0x3e	; 62
     2ea:	c2 50       	subi	r28, 0x02	; 2
     2ec:	d1 40       	sbci	r29, 0x01	; 1
     2ee:	0f b6       	in	r0, 0x3f	; 63
     2f0:	f8 94       	cli
     2f2:	de bf       	out	0x3e, r29	; 62
     2f4:	0f be       	out	0x3f, r0	; 63
     2f6:	cd bf       	out	0x3d, r28	; 61
     2f8:	cf 5f       	subi	r28, 0xFF	; 255
     2fa:	de 4f       	sbci	r29, 0xFE	; 254
     2fc:	19 82       	std	Y+1, r1	; 0x01
     2fe:	18 82       	st	Y, r1
     300:	c1 50       	subi	r28, 0x01	; 1
     302:	d1 40       	sbci	r29, 0x01	; 1
     304:	ce 01       	movw	r24, r28
     306:	8f 5f       	subi	r24, 0xFF	; 255
     308:	9e 4f       	sbci	r25, 0xFE	; 254
     30a:	0e 94 2c 13 	call	0x2658	; 0x2658 <fix_final>
     30e:	8c 01       	movw	r16, r24
     310:	cf 5f       	subi	r28, 0xFF	; 255
     312:	de 4f       	sbci	r29, 0xFE	; 254
     314:	f8 80       	ld	r15, Y
     316:	c1 50       	subi	r28, 0x01	; 1
     318:	d1 40       	sbci	r29, 0x01	; 1
     31a:	ce 5f       	subi	r28, 0xFE	; 254
     31c:	de 4f       	sbci	r29, 0xFE	; 254
     31e:	58 81       	ld	r21, Y
     320:	c2 50       	subi	r28, 0x02	; 2
     322:	d1 40       	sbci	r29, 0x01	; 1
     324:	4f 2d       	mov	r20, r15
     326:	bc 01       	movw	r22, r24
     328:	ce 01       	movw	r24, r28
     32a:	03 96       	adiw	r24, 0x03	; 3
     32c:	0e 94 07 1b 	call	0x360e	; 0x360e <memcpy>
     330:	8e e6       	ldi	r24, 0x6E	; 110
     332:	89 83       	std	Y+1, r24	; 0x01
     334:	f3 94       	inc	r15
     336:	f3 94       	inc	r15
     338:	fa 82       	std	Y+2, r15	; 0x02
     33a:	8d e9       	ldi	r24, 0x9D	; 157
     33c:	91 e0       	ldi	r25, 0x01	; 1
     33e:	0e 94 55 1b 	call	0x36aa	; 0x36aa <puts>
     342:	c8 01       	movw	r24, r16
     344:	0e 94 55 1b 	call	0x36aa	; 0x36aa <puts>
     348:	6a 81       	ldd	r22, Y+2	; 0x02
     34a:	70 e0       	ldi	r23, 0x00	; 0
     34c:	ce 01       	movw	r24, r28
     34e:	01 96       	adiw	r24, 0x01	; 1
     350:	0e 94 6e 11 	call	0x22dc	; 0x22dc <spi_write>
     354:	ce 5f       	subi	r28, 0xFE	; 254
     356:	de 4f       	sbci	r29, 0xFE	; 254
     358:	0f b6       	in	r0, 0x3f	; 63
     35a:	f8 94       	cli
     35c:	de bf       	out	0x3e, r29	; 62
     35e:	0f be       	out	0x3f, r0	; 63
     360:	cd bf       	out	0x3d, r28	; 61
     362:	df 91       	pop	r29
     364:	cf 91       	pop	r28
     366:	1f 91       	pop	r17
     368:	0f 91       	pop	r16
     36a:	ff 90       	pop	r15
     36c:	08 95       	ret

0000036e <test_request>:
     36e:	0e 94 04 14 	call	0x2808	; 0x2808 <fix_reset>
     372:	81 e3       	ldi	r24, 0x31	; 49
     374:	0e 94 3a 13 	call	0x2674	; 0x2674 <fix_add_type>
     378:	60 91 e5 06 	lds	r22, 0x06E5
     37c:	70 91 e6 06 	lds	r23, 0x06E6
     380:	80 e7       	ldi	r24, 0x70	; 112
     382:	90 e0       	ldi	r25, 0x00	; 0
     384:	0e 94 9e 13 	call	0x273c	; 0x273c <fix_add_num>
     388:	80 91 e5 06 	lds	r24, 0x06E5
     38c:	90 91 e6 06 	lds	r25, 0x06E6
     390:	01 96       	adiw	r24, 0x01	; 1
     392:	90 93 e6 06 	sts	0x06E6, r25
     396:	80 93 e5 06 	sts	0x06E5, r24
     39a:	0e 94 54 13 	call	0x26a8	; 0x26a8 <fix_set_length>
     39e:	0e 94 0d 14 	call	0x281a	; 0x281a <fix_add_sum>
     3a2:	0e 94 6e 01 	call	0x2dc	; 0x2dc <spi_write_fix>
     3a6:	80 e0       	ldi	r24, 0x00	; 0
     3a8:	90 e0       	ldi	r25, 0x00	; 0
     3aa:	08 95       	ret

000003ac <quote_request>:
     3ac:	cf 93       	push	r28
     3ae:	df 93       	push	r29
     3b0:	20 ea       	ldi	r18, 0xA0	; 160
     3b2:	31 e0       	ldi	r19, 0x01	; 1
     3b4:	0e 94 49 15 	call	0x2a92	; 0x2a92 <json_kv>
     3b8:	ec 01       	movw	r28, r24
     3ba:	00 97       	sbiw	r24, 0x00	; 0
     3bc:	41 f1       	breq	.+80     	; 0x40e <quote_request+0x62>
     3be:	0e 94 04 14 	call	0x2808	; 0x2808 <fix_reset>
     3c2:	82 e5       	ldi	r24, 0x52	; 82
     3c4:	0e 94 3a 13 	call	0x2674	; 0x2674 <fix_add_type>
     3c8:	60 91 e5 06 	lds	r22, 0x06E5
     3cc:	70 91 e6 06 	lds	r23, 0x06E6
     3d0:	83 e8       	ldi	r24, 0x83	; 131
     3d2:	90 e0       	ldi	r25, 0x00	; 0
     3d4:	0e 94 9e 13 	call	0x273c	; 0x273c <fix_add_num>
     3d8:	20 91 e5 06 	lds	r18, 0x06E5
     3dc:	30 91 e6 06 	lds	r19, 0x06E6
     3e0:	2f 5f       	subi	r18, 0xFF	; 255
     3e2:	3f 4f       	sbci	r19, 0xFF	; 255
     3e4:	30 93 e6 06 	sts	0x06E6, r19
     3e8:	20 93 e5 06 	sts	0x06E5, r18
     3ec:	be 01       	movw	r22, r28
     3ee:	87 e3       	ldi	r24, 0x37	; 55
     3f0:	90 e0       	ldi	r25, 0x00	; 0
     3f2:	0e 94 d1 13 	call	0x27a2	; 0x27a2 <fix_add_string>
     3f6:	61 e0       	ldi	r22, 0x01	; 1
     3f8:	70 e0       	ldi	r23, 0x00	; 0
     3fa:	82 e9       	ldi	r24, 0x92	; 146
     3fc:	90 e0       	ldi	r25, 0x00	; 0
     3fe:	0e 94 9e 13 	call	0x273c	; 0x273c <fix_add_num>
     402:	0e 94 54 13 	call	0x26a8	; 0x26a8 <fix_set_length>
     406:	0e 94 0d 14 	call	0x281a	; 0x281a <fix_add_sum>
     40a:	0e 94 6e 01 	call	0x2dc	; 0x2dc <spi_write_fix>
     40e:	80 e0       	ldi	r24, 0x00	; 0
     410:	90 e0       	ldi	r25, 0x00	; 0
     412:	df 91       	pop	r29
     414:	cf 91       	pop	r28
     416:	08 95       	ret

00000418 <__vector_17>:
     418:	1f 92       	push	r1
     41a:	0f 92       	push	r0
     41c:	0f b6       	in	r0, 0x3f	; 63
     41e:	0f 92       	push	r0
     420:	11 24       	eor	r1, r1
     422:	2f 93       	push	r18
     424:	3f 93       	push	r19
     426:	4f 93       	push	r20
     428:	5f 93       	push	r21
     42a:	6f 93       	push	r22
     42c:	7f 93       	push	r23
     42e:	8f 93       	push	r24
     430:	9f 93       	push	r25
     432:	af 93       	push	r26
     434:	bf 93       	push	r27
     436:	ef 93       	push	r30
     438:	ff 93       	push	r31
     43a:	64 e6       	ldi	r22, 0x64	; 100
     43c:	70 e0       	ldi	r23, 0x00	; 0
     43e:	8d e1       	ldi	r24, 0x1D	; 29
     440:	96 e0       	ldi	r25, 0x06	; 6
     442:	0e 94 9d 11 	call	0x233a	; 0x233a <spi_read>
     446:	80 91 1d 06 	lds	r24, 0x061D
     44a:	84 32       	cpi	r24, 0x24	; 36
     44c:	a1 f0       	breq	.+40     	; 0x476 <__vector_17+0x5e>
     44e:	85 35       	cpi	r24, 0x55	; 85
     450:	19 f5       	brne	.+70     	; 0x498 <__vector_17+0x80>
     452:	40 91 1e 06 	lds	r20, 0x061E
     456:	55 27       	eor	r21, r21
     458:	47 fd       	sbrc	r20, 7
     45a:	50 95       	com	r21
     45c:	6d e1       	ldi	r22, 0x1D	; 29
     45e:	76 e0       	ldi	r23, 0x06	; 6
     460:	81 e3       	ldi	r24, 0x31	; 49
     462:	95 e0       	ldi	r25, 0x05	; 5
     464:	0e 94 07 1b 	call	0x360e	; 0x360e <memcpy>
     468:	81 e0       	ldi	r24, 0x01	; 1
     46a:	90 e0       	ldi	r25, 0x00	; 0
     46c:	90 93 35 04 	sts	0x0435, r25
     470:	80 93 34 04 	sts	0x0434, r24
     474:	11 c0       	rjmp	.+34     	; 0x498 <__vector_17+0x80>
     476:	40 91 1e 06 	lds	r20, 0x061E
     47a:	55 27       	eor	r21, r21
     47c:	47 fd       	sbrc	r20, 7
     47e:	50 95       	com	r21
     480:	6d e1       	ldi	r22, 0x1D	; 29
     482:	76 e0       	ldi	r23, 0x06	; 6
     484:	87 ee       	ldi	r24, 0xE7	; 231
     486:	96 e0       	ldi	r25, 0x06	; 6
     488:	0e 94 07 1b 	call	0x360e	; 0x360e <memcpy>
     48c:	81 e0       	ldi	r24, 0x01	; 1
     48e:	90 e0       	ldi	r25, 0x00	; 0
     490:	90 93 33 04 	sts	0x0433, r25
     494:	80 93 32 04 	sts	0x0432, r24
     498:	81 e0       	ldi	r24, 0x01	; 1
     49a:	90 e0       	ldi	r25, 0x00	; 0
     49c:	90 93 43 04 	sts	0x0443, r25
     4a0:	80 93 42 04 	sts	0x0442, r24
     4a4:	ff 91       	pop	r31
     4a6:	ef 91       	pop	r30
     4a8:	bf 91       	pop	r27
     4aa:	af 91       	pop	r26
     4ac:	9f 91       	pop	r25
     4ae:	8f 91       	pop	r24
     4b0:	7f 91       	pop	r23
     4b2:	6f 91       	pop	r22
     4b4:	5f 91       	pop	r21
     4b6:	4f 91       	pop	r20
     4b8:	3f 91       	pop	r19
     4ba:	2f 91       	pop	r18
     4bc:	0f 90       	pop	r0
     4be:	0f be       	out	0x3f, r0	; 63
     4c0:	0f 90       	pop	r0
     4c2:	1f 90       	pop	r1
     4c4:	18 95       	reti

000004c6 <_call_compiler>:
     4c6:	0f 93       	push	r16
     4c8:	1f 93       	push	r17
     4ca:	89 ea       	ldi	r24, 0xA9	; 169
     4cc:	91 e0       	ldi	r25, 0x01	; 1
     4ce:	0e 94 55 1b 	call	0x36aa	; 0x36aa <puts>
     4d2:	80 91 4a 04 	lds	r24, 0x044A
     4d6:	88 23       	and	r24, r24
     4d8:	f9 f0       	breq	.+62     	; 0x518 <_call_compiler+0x52>
     4da:	40 91 4b 04 	lds	r20, 0x044B
     4de:	50 91 4c 04 	lds	r21, 0x044C
     4e2:	60 e0       	ldi	r22, 0x00	; 0
     4e4:	70 e0       	ldi	r23, 0x00	; 0
     4e6:	0d ed       	ldi	r16, 0xDD	; 221
     4e8:	19 e9       	ldi	r17, 0x99	; 153
     4ea:	25 eb       	ldi	r18, 0xB5	; 181
     4ec:	31 e0       	ldi	r19, 0x01	; 1
     4ee:	80 91 48 04 	lds	r24, 0x0448
     4f2:	90 91 49 04 	lds	r25, 0x0449
     4f6:	0e 94 29 09 	call	0x1252	; 0x1252 <stack_eval>
     4fa:	9f 93       	push	r25
     4fc:	8f 93       	push	r24
     4fe:	8a eb       	ldi	r24, 0xBA	; 186
     500:	91 e0       	ldi	r25, 0x01	; 1
     502:	9f 93       	push	r25
     504:	8f 93       	push	r24
     506:	0e 94 41 1b 	call	0x3682	; 0x3682 <printf>
     50a:	0f 90       	pop	r0
     50c:	0f 90       	pop	r0
     50e:	0f 90       	pop	r0
     510:	0f 90       	pop	r0
     512:	1f 91       	pop	r17
     514:	0f 91       	pop	r16
     516:	08 95       	ret
     518:	88 ec       	ldi	r24, 0xC8	; 200
     51a:	91 e0       	ldi	r25, 0x01	; 1
     51c:	1f 91       	pop	r17
     51e:	0f 91       	pop	r16
     520:	0c 94 55 1b 	jmp	0x36aa	; 0x36aa <puts>

00000524 <_reload_compiler>:
     524:	0f 93       	push	r16
     526:	1f 93       	push	r17
     528:	cf 93       	push	r28
     52a:	df 93       	push	r29
     52c:	00 d0       	rcall	.+0      	; 0x52e <_reload_compiler+0xa>
     52e:	00 d0       	rcall	.+0      	; 0x530 <_reload_compiler+0xc>
     530:	00 d0       	rcall	.+0      	; 0x532 <_reload_compiler+0xe>
     532:	cd b7       	in	r28, 0x3d	; 61
     534:	de b7       	in	r29, 0x3e	; 62
     536:	85 ed       	ldi	r24, 0xD5	; 213
     538:	91 e0       	ldi	r25, 0x01	; 1
     53a:	0e 94 55 1b 	call	0x36aa	; 0x36aa <puts>
     53e:	ae 01       	movw	r20, r28
     540:	4f 5f       	subi	r20, 0xFF	; 255
     542:	5f 4f       	sbci	r21, 0xFF	; 255
     544:	6a e0       	ldi	r22, 0x0A	; 10
     546:	70 e0       	ldi	r23, 0x00	; 0
     548:	86 ec       	ldi	r24, 0xC6	; 198
     54a:	97 e0       	ldi	r25, 0x07	; 7
     54c:	0e 94 8d 14 	call	0x291a	; 0x291a <spiflash_read>
     550:	97 ff       	sbrs	r25, 7
     552:	05 c0       	rjmp	.+10     	; 0x55e <_reload_compiler+0x3a>
     554:	10 92 4a 04 	sts	0x044A, r1
     558:	81 ee       	ldi	r24, 0xE1	; 225
     55a:	91 e0       	ldi	r25, 0x01	; 1
     55c:	8a c0       	rjmp	.+276    	; 0x672 <_reload_compiler+0x14e>
     55e:	89 81       	ldd	r24, Y+1	; 0x01
     560:	9a 81       	ldd	r25, Y+2	; 0x02
     562:	81 3d       	cpi	r24, 0xD1	; 209
     564:	97 40       	sbci	r25, 0x07	; 7
     566:	88 f4       	brcc	.+34     	; 0x58a <_reload_compiler+0x66>
     568:	8b 81       	ldd	r24, Y+3	; 0x03
     56a:	9c 81       	ldd	r25, Y+4	; 0x04
     56c:	81 3d       	cpi	r24, 0xD1	; 209
     56e:	97 40       	sbci	r25, 0x07	; 7
     570:	60 f4       	brcc	.+24     	; 0x58a <_reload_compiler+0x66>
     572:	8d 81       	ldd	r24, Y+5	; 0x05
     574:	9e 81       	ldd	r25, Y+6	; 0x06
     576:	81 3d       	cpi	r24, 0xD1	; 209
     578:	27 e0       	ldi	r18, 0x07	; 7
     57a:	92 07       	cpc	r25, r18
     57c:	30 f4       	brcc	.+12     	; 0x58a <_reload_compiler+0x66>
     57e:	2f 81       	ldd	r18, Y+7	; 0x07
     580:	38 85       	ldd	r19, Y+8	; 0x08
     582:	21 3d       	cpi	r18, 0xD1	; 209
     584:	47 e0       	ldi	r20, 0x07	; 7
     586:	34 07       	cpc	r19, r20
     588:	28 f0       	brcs	.+10     	; 0x594 <_reload_compiler+0x70>
     58a:	10 92 4a 04 	sts	0x044A, r1
     58e:	8b ef       	ldi	r24, 0xFB	; 251
     590:	91 e0       	ldi	r25, 0x01	; 1
     592:	6f c0       	rjmp	.+222    	; 0x672 <_reload_compiler+0x14e>
     594:	00 97       	sbiw	r24, 0x00	; 0
     596:	09 f4       	brne	.+2      	; 0x59a <_reload_compiler+0x76>
     598:	6e c0       	rjmp	.+220    	; 0x676 <_reload_compiler+0x152>
     59a:	23 2b       	or	r18, r19
     59c:	09 f4       	brne	.+2      	; 0x5a0 <_reload_compiler+0x7c>
     59e:	6b c0       	rjmp	.+214    	; 0x676 <_reload_compiler+0x152>
     5a0:	0e 94 0f 19 	call	0x321e	; 0x321e <malloc>
     5a4:	8c 01       	movw	r16, r24
     5a6:	8b e4       	ldi	r24, 0x4B	; 75
     5a8:	94 e0       	ldi	r25, 0x04	; 4
     5aa:	9f 93       	push	r25
     5ac:	8f 93       	push	r24
     5ae:	8e e1       	ldi	r24, 0x1E	; 30
     5b0:	92 e0       	ldi	r25, 0x02	; 2
     5b2:	9f 93       	push	r25
     5b4:	8f 93       	push	r24
     5b6:	0e 94 41 1b 	call	0x3682	; 0x3682 <printf>
     5ba:	89 85       	ldd	r24, Y+9	; 0x09
     5bc:	9a 85       	ldd	r25, Y+10	; 0x0a
     5be:	90 93 4c 04 	sts	0x044C, r25
     5c2:	80 93 4b 04 	sts	0x044B, r24
     5c6:	89 81       	ldd	r24, Y+1	; 0x01
     5c8:	9a 81       	ldd	r25, Y+2	; 0x02
     5ca:	90 93 41 04 	sts	0x0441, r25
     5ce:	80 93 40 04 	sts	0x0440, r24
     5d2:	8b 81       	ldd	r24, Y+3	; 0x03
     5d4:	9c 81       	ldd	r25, Y+4	; 0x04
     5d6:	90 93 3f 04 	sts	0x043F, r25
     5da:	80 93 3e 04 	sts	0x043E, r24
     5de:	0f 90       	pop	r0
     5e0:	0f 90       	pop	r0
     5e2:	0f 90       	pop	r0
     5e4:	0f 90       	pop	r0
     5e6:	80 91 48 04 	lds	r24, 0x0448
     5ea:	90 91 49 04 	lds	r25, 0x0449
     5ee:	89 2b       	or	r24, r25
     5f0:	a1 f4       	brne	.+40     	; 0x61a <_reload_compiler+0xf6>
     5f2:	80 e0       	ldi	r24, 0x00	; 0
     5f4:	94 e0       	ldi	r25, 0x04	; 4
     5f6:	0e 94 0f 19 	call	0x321e	; 0x321e <malloc>
     5fa:	80 93 48 04 	sts	0x0448, r24
     5fe:	90 93 49 04 	sts	0x0449, r25
     602:	9f 93       	push	r25
     604:	8f 93       	push	r24
     606:	80 e3       	ldi	r24, 0x30	; 48
     608:	92 e0       	ldi	r25, 0x02	; 2
     60a:	9f 93       	push	r25
     60c:	8f 93       	push	r24
     60e:	0e 94 41 1b 	call	0x3682	; 0x3682 <printf>
     612:	0f 90       	pop	r0
     614:	0f 90       	pop	r0
     616:	0f 90       	pop	r0
     618:	0f 90       	pop	r0
     61a:	6d 81       	ldd	r22, Y+5	; 0x05
     61c:	7e 81       	ldd	r23, Y+6	; 0x06
     61e:	a8 01       	movw	r20, r16
     620:	80 ed       	ldi	r24, 0xD0	; 208
     622:	97 e0       	ldi	r25, 0x07	; 7
     624:	0e 94 8d 14 	call	0x291a	; 0x291a <spiflash_read>
     628:	97 ff       	sbrs	r25, 7
     62a:	05 c0       	rjmp	.+10     	; 0x636 <_reload_compiler+0x112>
     62c:	10 92 4a 04 	sts	0x044A, r1
     630:	8b e4       	ldi	r24, 0x4B	; 75
     632:	92 e0       	ldi	r25, 0x02	; 2
     634:	1e c0       	rjmp	.+60     	; 0x672 <_reload_compiler+0x14e>
     636:	40 91 48 04 	lds	r20, 0x0448
     63a:	50 91 49 04 	lds	r21, 0x0449
     63e:	6f 81       	ldd	r22, Y+7	; 0x07
     640:	78 85       	ldd	r23, Y+8	; 0x08
     642:	80 ea       	ldi	r24, 0xA0	; 160
     644:	9f e0       	ldi	r25, 0x0F	; 15
     646:	0e 94 8d 14 	call	0x291a	; 0x291a <spiflash_read>
     64a:	97 ff       	sbrs	r25, 7
     64c:	05 c0       	rjmp	.+10     	; 0x658 <_reload_compiler+0x134>
     64e:	10 92 4a 04 	sts	0x044A, r1
     652:	8a e6       	ldi	r24, 0x6A	; 106
     654:	92 e0       	ldi	r25, 0x02	; 2
     656:	0d c0       	rjmp	.+26     	; 0x672 <_reload_compiler+0x14e>
     658:	6d 81       	ldd	r22, Y+5	; 0x05
     65a:	7e 81       	ldd	r23, Y+6	; 0x06
     65c:	c8 01       	movw	r24, r16
     65e:	0e 94 59 06 	call	0xcb2	; 0xcb2 <stack_load_globals>
     662:	c8 01       	movw	r24, r16
     664:	0e 94 a7 19 	call	0x334e	; 0x334e <free>
     668:	81 e0       	ldi	r24, 0x01	; 1
     66a:	80 93 4a 04 	sts	0x044A, r24
     66e:	8e e8       	ldi	r24, 0x8E	; 142
     670:	92 e0       	ldi	r25, 0x02	; 2
     672:	0e 94 55 1b 	call	0x36aa	; 0x36aa <puts>
     676:	26 96       	adiw	r28, 0x06	; 6
     678:	0f b6       	in	r0, 0x3f	; 63
     67a:	f8 94       	cli
     67c:	de bf       	out	0x3e, r29	; 62
     67e:	0f be       	out	0x3f, r0	; 63
     680:	cd bf       	out	0x3d, r28	; 61
     682:	df 91       	pop	r29
     684:	cf 91       	pop	r28
     686:	1f 91       	pop	r17
     688:	0f 91       	pop	r16
     68a:	08 95       	ret

0000068c <msg_write>:
     68c:	cf 93       	push	r28
     68e:	80 93 53 05 	sts	0x0553, r24
     692:	fb 01       	movw	r30, r22
     694:	01 90       	ld	r0, Z+
     696:	00 20       	and	r0, r0
     698:	e9 f7       	brne	.-6      	; 0x694 <msg_write+0x8>
     69a:	ce 2f       	mov	r28, r30
     69c:	c6 1b       	sub	r28, r22
     69e:	cf 5f       	subi	r28, 0xFF	; 255
     6a0:	c0 93 54 05 	sts	0x0554, r28
     6a4:	85 e5       	ldi	r24, 0x55	; 85
     6a6:	95 e0       	ldi	r25, 0x05	; 5
     6a8:	0e 94 20 1b 	call	0x3640	; 0x3640 <strcpy>
     6ac:	80 91 44 04 	lds	r24, 0x0444
     6b0:	90 91 45 04 	lds	r25, 0x0445
     6b4:	01 96       	adiw	r24, 0x01	; 1
     6b6:	90 93 45 04 	sts	0x0445, r25
     6ba:	80 93 44 04 	sts	0x0444, r24
     6be:	6c 2f       	mov	r22, r28
     6c0:	77 27       	eor	r23, r23
     6c2:	67 fd       	sbrc	r22, 7
     6c4:	70 95       	com	r23
     6c6:	83 e5       	ldi	r24, 0x53	; 83
     6c8:	95 e0       	ldi	r25, 0x05	; 5
     6ca:	cf 91       	pop	r28
     6cc:	0c 94 6e 11 	jmp	0x22dc	; 0x22dc <spi_write>

000006d0 <_write>:
     6d0:	bc 01       	movw	r22, r24
     6d2:	83 e7       	ldi	r24, 0x73	; 115
     6d4:	0c 94 46 03 	jmp	0x68c	; 0x68c <msg_write>

000006d8 <subscribe>:
     6d8:	ef 92       	push	r14
     6da:	ff 92       	push	r15
     6dc:	0f 93       	push	r16
     6de:	1f 93       	push	r17
     6e0:	cf 93       	push	r28
     6e2:	df 93       	push	r29
     6e4:	cd b7       	in	r28, 0x3d	; 61
     6e6:	de b7       	in	r29, 0x3e	; 62
     6e8:	c0 55       	subi	r28, 0x50	; 80
     6ea:	d1 09       	sbc	r29, r1
     6ec:	0f b6       	in	r0, 0x3f	; 63
     6ee:	f8 94       	cli
     6f0:	de bf       	out	0x3e, r29	; 62
     6f2:	0f be       	out	0x3f, r0	; 63
     6f4:	cd bf       	out	0x3d, r28	; 61
     6f6:	8c 01       	movw	r16, r24
     6f8:	f6 2e       	mov	r15, r22
     6fa:	e7 2e       	mov	r14, r23
     6fc:	22 96       	adiw	r28, 0x02	; 2
     6fe:	1f ae       	std	Y+63, r1	; 0x3f
     700:	22 97       	sbiw	r28, 0x02	; 2
     702:	23 96       	adiw	r28, 0x03	; 3
     704:	1f ae       	std	Y+63, r1	; 0x3f
     706:	23 97       	sbiw	r28, 0x03	; 3
     708:	24 96       	adiw	r28, 0x04	; 4
     70a:	1f ae       	std	Y+63, r1	; 0x3f
     70c:	24 97       	sbiw	r28, 0x04	; 4
     70e:	25 96       	adiw	r28, 0x05	; 5
     710:	1f ae       	std	Y+63, r1	; 0x3f
     712:	25 97       	sbiw	r28, 0x05	; 5
     714:	81 e4       	ldi	r24, 0x41	; 65
     716:	90 e0       	ldi	r25, 0x00	; 0
     718:	8c 0f       	add	r24, r28
     71a:	9d 1f       	adc	r25, r29
     71c:	04 96       	adiw	r24, 0x04	; 4
     71e:	0e 94 20 1b 	call	0x3640	; 0x3640 <strcpy>
     722:	c8 01       	movw	r24, r16
     724:	04 96       	adiw	r24, 0x04	; 4
     726:	40 e1       	ldi	r20, 0x10	; 16
     728:	be 01       	movw	r22, r28
     72a:	6f 5b       	subi	r22, 0xBF	; 191
     72c:	7f 4f       	sbci	r23, 0xFF	; 255
     72e:	24 e0       	ldi	r18, 0x04	; 4
     730:	88 0f       	add	r24, r24
     732:	99 1f       	adc	r25, r25
     734:	2a 95       	dec	r18
     736:	e1 f7       	brne	.-8      	; 0x730 <subscribe+0x58>
     738:	0e 94 14 15 	call	0x2a28	; 0x2a28 <spiflash_write>
     73c:	ef 92       	push	r14
     73e:	ff 92       	push	r15
     740:	80 91 45 04 	lds	r24, 0x0445
     744:	8f 93       	push	r24
     746:	80 91 44 04 	lds	r24, 0x0444
     74a:	8f 93       	push	r24
     74c:	89 e9       	ldi	r24, 0x99	; 153
     74e:	92 e0       	ldi	r25, 0x02	; 2
     750:	9f 93       	push	r25
     752:	8f 93       	push	r24
     754:	8e 01       	movw	r16, r28
     756:	0f 5f       	subi	r16, 0xFF	; 255
     758:	1f 4f       	sbci	r17, 0xFF	; 255
     75a:	1f 93       	push	r17
     75c:	0f 93       	push	r16
     75e:	0e 94 82 1b 	call	0x3704	; 0x3704 <sprintf>
     762:	c8 01       	movw	r24, r16
     764:	0e 94 68 03 	call	0x6d0	; 0x6d0 <_write>
     768:	0f b6       	in	r0, 0x3f	; 63
     76a:	f8 94       	cli
     76c:	de bf       	out	0x3e, r29	; 62
     76e:	0f be       	out	0x3f, r0	; 63
     770:	cd bf       	out	0x3d, r28	; 61
     772:	c0 5b       	subi	r28, 0xB0	; 176
     774:	df 4f       	sbci	r29, 0xFF	; 255
     776:	0f b6       	in	r0, 0x3f	; 63
     778:	f8 94       	cli
     77a:	de bf       	out	0x3e, r29	; 62
     77c:	0f be       	out	0x3f, r0	; 63
     77e:	cd bf       	out	0x3d, r28	; 61
     780:	df 91       	pop	r29
     782:	cf 91       	pop	r28
     784:	1f 91       	pop	r17
     786:	0f 91       	pop	r16
     788:	ff 90       	pop	r15
     78a:	ef 90       	pop	r14
     78c:	08 95       	ret

0000078e <buysell>:
     78e:	ff 92       	push	r15
     790:	0f 93       	push	r16
     792:	1f 93       	push	r17
     794:	cf 93       	push	r28
     796:	df 93       	push	r29
     798:	cd b7       	in	r28, 0x3d	; 61
     79a:	de b7       	in	r29, 0x3e	; 62
     79c:	c0 55       	subi	r28, 0x50	; 80
     79e:	d1 09       	sbc	r29, r1
     7a0:	0f b6       	in	r0, 0x3f	; 63
     7a2:	f8 94       	cli
     7a4:	de bf       	out	0x3e, r29	; 62
     7a6:	0f be       	out	0x3f, r0	; 63
     7a8:	cd bf       	out	0x3d, r28	; 61
     7aa:	f8 2e       	mov	r15, r24
     7ac:	cb 01       	movw	r24, r22
     7ae:	14 2f       	mov	r17, r20
     7b0:	05 2f       	mov	r16, r21
     7b2:	04 96       	adiw	r24, 0x04	; 4
     7b4:	ae 01       	movw	r20, r28
     7b6:	4f 5b       	subi	r20, 0xBF	; 191
     7b8:	5f 4f       	sbci	r21, 0xFF	; 255
     7ba:	60 e1       	ldi	r22, 0x10	; 16
     7bc:	70 e0       	ldi	r23, 0x00	; 0
     7be:	24 e0       	ldi	r18, 0x04	; 4
     7c0:	88 0f       	add	r24, r24
     7c2:	99 1f       	adc	r25, r25
     7c4:	2a 95       	dec	r18
     7c6:	e1 f7       	brne	.-8      	; 0x7c0 <buysell+0x32>
     7c8:	0e 94 8d 14 	call	0x291a	; 0x291a <spiflash_read>
     7cc:	83 e5       	ldi	r24, 0x53	; 83
     7ce:	f8 16       	cp	r15, r24
     7d0:	19 f0       	breq	.+6      	; 0x7d8 <buysell+0x4a>
     7d2:	86 ec       	ldi	r24, 0xC6	; 198
     7d4:	92 e0       	ldi	r25, 0x02	; 2
     7d6:	02 c0       	rjmp	.+4      	; 0x7dc <buysell+0x4e>
     7d8:	8a ec       	ldi	r24, 0xCA	; 202
     7da:	92 e0       	ldi	r25, 0x02	; 2
     7dc:	0f 93       	push	r16
     7de:	1f 93       	push	r17
     7e0:	21 e4       	ldi	r18, 0x41	; 65
     7e2:	30 e0       	ldi	r19, 0x00	; 0
     7e4:	2c 0f       	add	r18, r28
     7e6:	3d 1f       	adc	r19, r29
     7e8:	2c 5f       	subi	r18, 0xFC	; 252
     7ea:	3f 4f       	sbci	r19, 0xFF	; 255
     7ec:	3f 93       	push	r19
     7ee:	2f 93       	push	r18
     7f0:	9f 93       	push	r25
     7f2:	8f 93       	push	r24
     7f4:	80 91 45 04 	lds	r24, 0x0445
     7f8:	8f 93       	push	r24
     7fa:	80 91 44 04 	lds	r24, 0x0444
     7fe:	8f 93       	push	r24
     800:	8f ec       	ldi	r24, 0xCF	; 207
     802:	92 e0       	ldi	r25, 0x02	; 2
     804:	9f 93       	push	r25
     806:	8f 93       	push	r24
     808:	8e 01       	movw	r16, r28
     80a:	0f 5f       	subi	r16, 0xFF	; 255
     80c:	1f 4f       	sbci	r17, 0xFF	; 255
     80e:	1f 93       	push	r17
     810:	0f 93       	push	r16
     812:	0e 94 82 1b 	call	0x3704	; 0x3704 <sprintf>
     816:	c8 01       	movw	r24, r16
     818:	0e 94 55 1b 	call	0x36aa	; 0x36aa <puts>
     81c:	c8 01       	movw	r24, r16
     81e:	0e 94 68 03 	call	0x6d0	; 0x6d0 <_write>
     822:	0f b6       	in	r0, 0x3f	; 63
     824:	f8 94       	cli
     826:	de bf       	out	0x3e, r29	; 62
     828:	0f be       	out	0x3f, r0	; 63
     82a:	cd bf       	out	0x3d, r28	; 61
     82c:	c0 5b       	subi	r28, 0xB0	; 176
     82e:	df 4f       	sbci	r29, 0xFF	; 255
     830:	0f b6       	in	r0, 0x3f	; 63
     832:	f8 94       	cli
     834:	de bf       	out	0x3e, r29	; 62
     836:	0f be       	out	0x3f, r0	; 63
     838:	cd bf       	out	0x3d, r28	; 61
     83a:	df 91       	pop	r29
     83c:	cf 91       	pop	r28
     83e:	1f 91       	pop	r17
     840:	0f 91       	pop	r16
     842:	ff 90       	pop	r15
     844:	08 95       	ret

00000846 <ui_handler>:
     846:	fc 01       	movw	r30, r24
     848:	16 16       	cp	r1, r22
     84a:	17 06       	cpc	r1, r23
     84c:	0c f0       	brlt	.+2      	; 0x850 <ui_handler+0xa>
     84e:	52 c0       	rjmp	.+164    	; 0x8f4 <ui_handler+0xae>
     850:	80 91 46 04 	lds	r24, 0x0446
     854:	90 91 47 04 	lds	r25, 0x0447
     858:	01 96       	adiw	r24, 0x01	; 1
     85a:	90 93 47 04 	sts	0x0447, r25
     85e:	80 93 46 04 	sts	0x0446, r24
     862:	80 81       	ld	r24, Z
     864:	80 35       	cpi	r24, 0x50	; 80
     866:	71 f0       	breq	.+28     	; 0x884 <ui_handler+0x3e>
     868:	28 f4       	brcc	.+10     	; 0x874 <ui_handler+0x2e>
     86a:	82 34       	cpi	r24, 0x42	; 66
     86c:	b1 f1       	breq	.+108    	; 0x8da <ui_handler+0x94>
     86e:	8c 34       	cpi	r24, 0x4C	; 76
     870:	09 f1       	breq	.+66     	; 0x8b4 <ui_handler+0x6e>
     872:	08 95       	ret
     874:	83 35       	cpi	r24, 0x53	; 83
     876:	89 f1       	breq	.+98     	; 0x8da <ui_handler+0x94>
     878:	84 35       	cpi	r24, 0x54	; 84
     87a:	f1 f0       	breq	.+60     	; 0x8b8 <ui_handler+0x72>
     87c:	82 35       	cpi	r24, 0x52	; 82
     87e:	d1 f5       	brne	.+116    	; 0x8f4 <ui_handler+0xae>
     880:	0c 94 63 02 	jmp	0x4c6	; 0x4c6 <_call_compiler>
     884:	42 e0       	ldi	r20, 0x02	; 2
     886:	66 e4       	ldi	r22, 0x46	; 70
     888:	74 e0       	ldi	r23, 0x04	; 4
     88a:	8a e0       	ldi	r24, 0x0A	; 10
     88c:	90 e0       	ldi	r25, 0x00	; 0
     88e:	0e 94 14 15 	call	0x2a28	; 0x2a28 <spiflash_write>
     892:	80 91 47 04 	lds	r24, 0x0447
     896:	8f 93       	push	r24
     898:	80 91 46 04 	lds	r24, 0x0446
     89c:	8f 93       	push	r24
     89e:	8e ef       	ldi	r24, 0xFE	; 254
     8a0:	92 e0       	ldi	r25, 0x02	; 2
     8a2:	9f 93       	push	r25
     8a4:	8f 93       	push	r24
     8a6:	0e 94 41 1b 	call	0x3682	; 0x3682 <printf>
     8aa:	0f 90       	pop	r0
     8ac:	0f 90       	pop	r0
     8ae:	0f 90       	pop	r0
     8b0:	0f 90       	pop	r0
     8b2:	08 95       	ret
     8b4:	0c 94 92 02 	jmp	0x524	; 0x524 <_reload_compiler>
     8b8:	64 30       	cpi	r22, 0x04	; 4
     8ba:	71 05       	cpc	r23, r1
     8bc:	dc f0       	brlt	.+54     	; 0x8f4 <ui_handler+0xae>
     8be:	df 01       	movw	r26, r30
     8c0:	a6 0f       	add	r26, r22
     8c2:	b7 1f       	adc	r27, r23
     8c4:	11 97       	sbiw	r26, 0x01	; 1
     8c6:	8c 91       	ld	r24, X
     8c8:	81 11       	cpse	r24, r1
     8ca:	14 c0       	rjmp	.+40     	; 0x8f4 <ui_handler+0xae>
     8cc:	bf 01       	movw	r22, r30
     8ce:	6e 5f       	subi	r22, 0xFE	; 254
     8d0:	7f 4f       	sbci	r23, 0xFF	; 255
     8d2:	81 81       	ldd	r24, Z+1	; 0x01
     8d4:	90 e0       	ldi	r25, 0x00	; 0
     8d6:	0c 94 6c 03 	jmp	0x6d8	; 0x6d8 <subscribe>
     8da:	64 30       	cpi	r22, 0x04	; 4
     8dc:	71 05       	cpc	r23, r1
     8de:	54 f0       	brlt	.+20     	; 0x8f4 <ui_handler+0xae>
     8e0:	43 81       	ldd	r20, Z+3	; 0x03
     8e2:	50 e0       	ldi	r21, 0x00	; 0
     8e4:	54 2f       	mov	r21, r20
     8e6:	44 27       	eor	r20, r20
     8e8:	92 81       	ldd	r25, Z+2	; 0x02
     8ea:	49 2b       	or	r20, r25
     8ec:	61 81       	ldd	r22, Z+1	; 0x01
     8ee:	70 e0       	ldi	r23, 0x00	; 0
     8f0:	0c 94 c7 03 	jmp	0x78e	; 0x78e <buysell>
     8f4:	08 95       	ret

000008f6 <heartbeat>:
     8f6:	cf 93       	push	r28
     8f8:	df 93       	push	r29
     8fa:	83 e7       	ldi	r24, 0x73	; 115
     8fc:	80 93 53 05 	sts	0x0553, r24
     900:	80 91 45 04 	lds	r24, 0x0445
     904:	8f 93       	push	r24
     906:	80 91 44 04 	lds	r24, 0x0444
     90a:	8f 93       	push	r24
     90c:	89 e0       	ldi	r24, 0x09	; 9
     90e:	93 e0       	ldi	r25, 0x03	; 3
     910:	9f 93       	push	r25
     912:	8f 93       	push	r24
     914:	c5 e5       	ldi	r28, 0x55	; 85
     916:	d5 e0       	ldi	r29, 0x05	; 5
     918:	df 93       	push	r29
     91a:	cf 93       	push	r28
     91c:	0e 94 82 1b 	call	0x3704	; 0x3704 <sprintf>
     920:	fe 01       	movw	r30, r28
     922:	01 90       	ld	r0, Z+
     924:	00 20       	and	r0, r0
     926:	e9 f7       	brne	.-6      	; 0x922 <__stack+0x23>
     928:	bf 01       	movw	r22, r30
     92a:	63 55       	subi	r22, 0x53	; 83
     92c:	75 40       	sbci	r23, 0x05	; 5
     92e:	60 93 54 05 	sts	0x0554, r22
     932:	80 91 44 04 	lds	r24, 0x0444
     936:	90 91 45 04 	lds	r25, 0x0445
     93a:	01 96       	adiw	r24, 0x01	; 1
     93c:	90 93 45 04 	sts	0x0445, r25
     940:	80 93 44 04 	sts	0x0444, r24
     944:	0f 90       	pop	r0
     946:	0f 90       	pop	r0
     948:	0f 90       	pop	r0
     94a:	0f 90       	pop	r0
     94c:	0f 90       	pop	r0
     94e:	0f 90       	pop	r0
     950:	83 e5       	ldi	r24, 0x53	; 83
     952:	95 e0       	ldi	r25, 0x05	; 5
     954:	df 91       	pop	r29
     956:	cf 91       	pop	r28
     958:	0c 94 6e 11 	jmp	0x22dc	; 0x22dc <spi_write>

0000095c <_ontimer>:
     95c:	08 95       	ret

0000095e <__vector_13>:
     95e:	1f 92       	push	r1
     960:	0f 92       	push	r0
     962:	0f b6       	in	r0, 0x3f	; 63
     964:	0f 92       	push	r0
     966:	11 24       	eor	r1, r1
     968:	8f 93       	push	r24
     96a:	9f 93       	push	r25
     96c:	81 e0       	ldi	r24, 0x01	; 1
     96e:	90 e0       	ldi	r25, 0x00	; 0
     970:	90 93 2f 04 	sts	0x042F, r25
     974:	80 93 2e 04 	sts	0x042E, r24
     978:	9f 91       	pop	r25
     97a:	8f 91       	pop	r24
     97c:	0f 90       	pop	r0
     97e:	0f be       	out	0x3f, r0	; 63
     980:	0f 90       	pop	r0
     982:	1f 90       	pop	r1
     984:	18 95       	reti

00000986 <go>:
     986:	cf 93       	push	r28
     988:	df 93       	push	r29
     98a:	cd b7       	in	r28, 0x3d	; 61
     98c:	de b7       	in	r29, 0x3e	; 62
     98e:	c0 58       	subi	r28, 0x80	; 128
     990:	d1 09       	sbc	r29, r1
     992:	0f b6       	in	r0, 0x3f	; 63
     994:	f8 94       	cli
     996:	de bf       	out	0x3e, r29	; 62
     998:	0f be       	out	0x3f, r0	; 63
     99a:	cd bf       	out	0x3d, r28	; 61
     99c:	0e 94 59 11 	call	0x22b2	; 0x22b2 <spi_setup>
     9a0:	0e 94 11 12 	call	0x2422	; 0x2422 <debug_setup_output>
     9a4:	0e 94 66 06 	call	0xccc	; 0xccc <stack_init>
     9a8:	66 ef       	ldi	r22, 0xF6	; 246
     9aa:	70 e0       	ldi	r23, 0x00	; 0
     9ac:	ce 01       	movw	r24, r28
     9ae:	01 96       	adiw	r24, 0x01	; 1
     9b0:	0e 94 00 1b 	call	0x3600	; 0x3600 <strcpy_P>
     9b4:	ce 01       	movw	r24, r28
     9b6:	01 96       	adiw	r24, 0x01	; 1
     9b8:	0e 94 55 1b 	call	0x36aa	; 0x36aa <puts>
     9bc:	78 94       	sei
     9be:	0e 94 73 14 	call	0x28e6	; 0x28e6 <spiflash_write_enable>
     9c2:	0e 94 e4 11 	call	0x23c8	; 0x23c8 <timer_10ms>
     9c6:	83 e2       	ldi	r24, 0x23	; 35
     9c8:	93 e0       	ldi	r25, 0x03	; 3
     9ca:	0e 94 55 1b 	call	0x36aa	; 0x36aa <puts>
     9ce:	80 91 34 04 	lds	r24, 0x0434
     9d2:	90 91 35 04 	lds	r25, 0x0435
     9d6:	89 2b       	or	r24, r25
     9d8:	79 f0       	breq	.+30     	; 0x9f8 <go+0x72>
     9da:	60 91 32 05 	lds	r22, 0x0532
     9de:	77 27       	eor	r23, r23
     9e0:	67 fd       	sbrc	r22, 7
     9e2:	70 95       	com	r23
     9e4:	62 50       	subi	r22, 0x02	; 2
     9e6:	71 09       	sbc	r23, r1
     9e8:	83 e3       	ldi	r24, 0x33	; 51
     9ea:	95 e0       	ldi	r25, 0x05	; 5
     9ec:	0e 94 23 04 	call	0x846	; 0x846 <ui_handler>
     9f0:	10 92 35 04 	sts	0x0435, r1
     9f4:	10 92 34 04 	sts	0x0434, r1
     9f8:	80 91 32 04 	lds	r24, 0x0432
     9fc:	90 91 33 04 	lds	r25, 0x0433
     a00:	89 2b       	or	r24, r25
     a02:	41 f0       	breq	.+16     	; 0xa14 <go+0x8e>
     a04:	87 ee       	ldi	r24, 0xE7	; 231
     a06:	96 e0       	ldi	r25, 0x06	; 6
     a08:	0e 94 55 1b 	call	0x36aa	; 0x36aa <puts>
     a0c:	10 92 33 04 	sts	0x0433, r1
     a10:	10 92 32 04 	sts	0x0432, r1
     a14:	80 91 2e 04 	lds	r24, 0x042E
     a18:	90 91 2f 04 	lds	r25, 0x042F
     a1c:	89 2b       	or	r24, r25
     a1e:	b9 f2       	breq	.-82     	; 0x9ce <go+0x48>
     a20:	10 92 2f 04 	sts	0x042F, r1
     a24:	10 92 2e 04 	sts	0x042E, r1
     a28:	d2 cf       	rjmp	.-92     	; 0x9ce <go+0x48>

00000a2a <svm_xalloca>:
     a2a:	60 e0       	ldi	r22, 0x00	; 0
     a2c:	70 e0       	ldi	r23, 0x00	; 0
     a2e:	cb 01       	movw	r24, r22
     a30:	08 95       	ret

00000a32 <svm_toggle_call_ret>:
     a32:	80 91 55 04 	lds	r24, 0x0455
     a36:	90 91 56 04 	lds	r25, 0x0456
     a3a:	89 2b       	or	r24, r25
     a3c:	29 f0       	breq	.+10     	; 0xa48 <svm_toggle_call_ret+0x16>
     a3e:	10 92 56 04 	sts	0x0456, r1
     a42:	10 92 55 04 	sts	0x0455, r1
     a46:	06 c0       	rjmp	.+12     	; 0xa54 <svm_toggle_call_ret+0x22>
     a48:	81 e0       	ldi	r24, 0x01	; 1
     a4a:	90 e0       	ldi	r25, 0x00	; 0
     a4c:	90 93 56 04 	sts	0x0456, r25
     a50:	80 93 55 04 	sts	0x0455, r24
     a54:	60 e0       	ldi	r22, 0x00	; 0
     a56:	70 e0       	ldi	r23, 0x00	; 0
     a58:	cb 01       	movw	r24, r22
     a5a:	08 95       	ret

00000a5c <svm_toggle_insn_print>:
     a5c:	80 91 57 04 	lds	r24, 0x0457
     a60:	90 91 58 04 	lds	r25, 0x0458
     a64:	89 2b       	or	r24, r25
     a66:	29 f0       	breq	.+10     	; 0xa72 <svm_toggle_insn_print+0x16>
     a68:	10 92 58 04 	sts	0x0458, r1
     a6c:	10 92 57 04 	sts	0x0457, r1
     a70:	06 c0       	rjmp	.+12     	; 0xa7e <svm_toggle_insn_print+0x22>
     a72:	81 e0       	ldi	r24, 0x01	; 1
     a74:	90 e0       	ldi	r25, 0x00	; 0
     a76:	90 93 58 04 	sts	0x0458, r25
     a7a:	80 93 57 04 	sts	0x0457, r24
     a7e:	60 e0       	ldi	r22, 0x00	; 0
     a80:	70 e0       	ldi	r23, 0x00	; 0
     a82:	cb 01       	movw	r24, r22
     a84:	08 95       	ret

00000a86 <svm_setkey>:
     a86:	fc 01       	movw	r30, r24
     a88:	80 81       	ld	r24, Z
     a8a:	91 81       	ldd	r25, Z+1	; 0x01
     a8c:	9f 50       	subi	r25, 0x0F	; 15
     a8e:	0e 94 56 0f 	call	0x1eac	; 0x1eac <cipher_setup>
     a92:	60 e0       	ldi	r22, 0x00	; 0
     a94:	70 e0       	ldi	r23, 0x00	; 0
     a96:	cb 01       	movw	r24, r22
     a98:	08 95       	ret

00000a9a <svm_field_unlock>:
     a9a:	0f 93       	push	r16
     a9c:	1f 93       	push	r17
     a9e:	cf 93       	push	r28
     aa0:	df 93       	push	r29
     aa2:	cd b7       	in	r28, 0x3d	; 61
     aa4:	de b7       	in	r29, 0x3e	; 62
     aa6:	c0 58       	subi	r28, 0x80	; 128
     aa8:	d1 09       	sbc	r29, r1
     aaa:	0f b6       	in	r0, 0x3f	; 63
     aac:	f8 94       	cli
     aae:	de bf       	out	0x3e, r29	; 62
     ab0:	0f be       	out	0x3f, r0	; 63
     ab2:	cd bf       	out	0x3d, r28	; 61
     ab4:	8b e1       	ldi	r24, 0x1B	; 27
     ab6:	98 e0       	ldi	r25, 0x08	; 8
     ab8:	9f 93       	push	r25
     aba:	8f 93       	push	r24
     abc:	8e e2       	ldi	r24, 0x2E	; 46
     abe:	93 e0       	ldi	r25, 0x03	; 3
     ac0:	9f 93       	push	r25
     ac2:	8f 93       	push	r24
     ac4:	8e 01       	movw	r16, r28
     ac6:	0f 5f       	subi	r16, 0xFF	; 255
     ac8:	1f 4f       	sbci	r17, 0xFF	; 255
     aca:	1f 93       	push	r17
     acc:	0f 93       	push	r16
     ace:	0e 94 82 1b 	call	0x3704	; 0x3704 <sprintf>
     ad2:	f8 01       	movw	r30, r16
     ad4:	01 90       	ld	r0, Z+
     ad6:	00 20       	and	r0, r0
     ad8:	e9 f7       	brne	.-6      	; 0xad4 <svm_field_unlock+0x3a>
     ada:	af 01       	movw	r20, r30
     adc:	41 50       	subi	r20, 0x01	; 1
     ade:	51 09       	sbc	r21, r1
     ae0:	40 1b       	sub	r20, r16
     ae2:	51 0b       	sbc	r21, r17
     ae4:	b8 01       	movw	r22, r16
     ae6:	84 e2       	ldi	r24, 0x24	; 36
     ae8:	0e 94 11 01 	call	0x222	; 0x222 <send>
     aec:	0f 90       	pop	r0
     aee:	0f 90       	pop	r0
     af0:	0f 90       	pop	r0
     af2:	0f 90       	pop	r0
     af4:	0f 90       	pop	r0
     af6:	0f 90       	pop	r0
     af8:	60 e0       	ldi	r22, 0x00	; 0
     afa:	70 e0       	ldi	r23, 0x00	; 0
     afc:	cb 01       	movw	r24, r22
     afe:	c0 58       	subi	r28, 0x80	; 128
     b00:	df 4f       	sbci	r29, 0xFF	; 255
     b02:	0f b6       	in	r0, 0x3f	; 63
     b04:	f8 94       	cli
     b06:	de bf       	out	0x3e, r29	; 62
     b08:	0f be       	out	0x3f, r0	; 63
     b0a:	cd bf       	out	0x3d, r28	; 61
     b0c:	df 91       	pop	r29
     b0e:	cf 91       	pop	r28
     b10:	1f 91       	pop	r17
     b12:	0f 91       	pop	r16
     b14:	08 95       	ret

00000b16 <svm_printint>:
     b16:	fc 01       	movw	r30, r24
     b18:	83 81       	ldd	r24, Z+3	; 0x03
     b1a:	8f 93       	push	r24
     b1c:	82 81       	ldd	r24, Z+2	; 0x02
     b1e:	8f 93       	push	r24
     b20:	81 81       	ldd	r24, Z+1	; 0x01
     b22:	8f 93       	push	r24
     b24:	80 81       	ld	r24, Z
     b26:	8f 93       	push	r24
     b28:	8a e7       	ldi	r24, 0x7A	; 122
     b2a:	93 e0       	ldi	r25, 0x03	; 3
     b2c:	9f 93       	push	r25
     b2e:	8f 93       	push	r24
     b30:	0e 94 41 1b 	call	0x3682	; 0x3682 <printf>
     b34:	0f 90       	pop	r0
     b36:	0f 90       	pop	r0
     b38:	0f 90       	pop	r0
     b3a:	0f 90       	pop	r0
     b3c:	0f 90       	pop	r0
     b3e:	0f 90       	pop	r0
     b40:	60 e0       	ldi	r22, 0x00	; 0
     b42:	70 e0       	ldi	r23, 0x00	; 0
     b44:	cb 01       	movw	r24, r22
     b46:	08 95       	ret

00000b48 <svm_printstring>:
     b48:	fc 01       	movw	r30, r24
     b4a:	80 81       	ld	r24, Z
     b4c:	91 81       	ldd	r25, Z+1	; 0x01
     b4e:	9f 50       	subi	r25, 0x0F	; 15
     b50:	0e 94 55 1b 	call	0x36aa	; 0x36aa <puts>
     b54:	60 e0       	ldi	r22, 0x00	; 0
     b56:	70 e0       	ldi	r23, 0x00	; 0
     b58:	cb 01       	movw	r24, r22
     b5a:	08 95       	ret

00000b5c <program_page>:
     b5c:	0f 93       	push	r16
     b5e:	1f 93       	push	r17
     b60:	cf 93       	push	r28
     b62:	df 93       	push	r29
     b64:	eb 01       	movw	r28, r22
     b66:	23 e0       	ldi	r18, 0x03	; 3
     b68:	fb 01       	movw	r30, r22
     b6a:	20 93 57 00 	sts	0x0057, r18
     b6e:	e8 95       	spm
     b70:	07 b6       	in	r0, 0x37	; 55
     b72:	00 fc       	sbrc	r0, 0
     b74:	fd cf       	rjmp	.-6      	; 0xb70 <program_page+0x14>
     b76:	20 e0       	ldi	r18, 0x00	; 0
     b78:	30 e0       	ldi	r19, 0x00	; 0
     b7a:	11 e0       	ldi	r17, 0x01	; 1
     b7c:	da 01       	movw	r26, r20
     b7e:	a2 0f       	add	r26, r18
     b80:	b3 1f       	adc	r27, r19
     b82:	0c 91       	ld	r16, X
     b84:	f9 01       	movw	r30, r18
     b86:	ec 0f       	add	r30, r28
     b88:	fd 1f       	adc	r31, r29
     b8a:	11 96       	adiw	r26, 0x01	; 1
     b8c:	ac 91       	ld	r26, X
     b8e:	b0 e0       	ldi	r27, 0x00	; 0
     b90:	ba 2f       	mov	r27, r26
     b92:	aa 27       	eor	r26, r26
     b94:	a0 0f       	add	r26, r16
     b96:	b1 1d       	adc	r27, r1
     b98:	0d 01       	movw	r0, r26
     b9a:	10 93 57 00 	sts	0x0057, r17
     b9e:	e8 95       	spm
     ba0:	11 24       	eor	r1, r1
     ba2:	2e 5f       	subi	r18, 0xFE	; 254
     ba4:	3f 4f       	sbci	r19, 0xFF	; 255
     ba6:	20 38       	cpi	r18, 0x80	; 128
     ba8:	31 05       	cpc	r19, r1
     baa:	41 f7       	brne	.-48     	; 0xb7c <program_page+0x20>
     bac:	25 e0       	ldi	r18, 0x05	; 5
     bae:	fb 01       	movw	r30, r22
     bb0:	20 93 57 00 	sts	0x0057, r18
     bb4:	e8 95       	spm
     bb6:	07 b6       	in	r0, 0x37	; 55
     bb8:	00 fc       	sbrc	r0, 0
     bba:	fd cf       	rjmp	.-6      	; 0xbb6 <program_page+0x5a>
     bbc:	81 e1       	ldi	r24, 0x11	; 17
     bbe:	80 93 57 00 	sts	0x0057, r24
     bc2:	e8 95       	spm
     bc4:	df 91       	pop	r29
     bc6:	cf 91       	pop	r28
     bc8:	1f 91       	pop	r17
     bca:	0f 91       	pop	r16
     bcc:	08 95       	ret

00000bce <load>:
     bce:	0f 93       	push	r16
     bd0:	1f 93       	push	r17
     bd2:	fb 01       	movw	r30, r22
     bd4:	ed 5f       	subi	r30, 0xFD	; 253
     bd6:	fe 40       	sbci	r31, 0x0E	; 14
     bd8:	00 81       	ld	r16, Z
     bda:	10 e0       	ldi	r17, 0x00	; 0
     bdc:	20 e0       	ldi	r18, 0x00	; 0
     bde:	30 e0       	ldi	r19, 0x00	; 0
     be0:	32 2f       	mov	r19, r18
     be2:	21 2f       	mov	r18, r17
     be4:	10 2f       	mov	r17, r16
     be6:	00 27       	eor	r16, r16
     be8:	fb 01       	movw	r30, r22
     bea:	ee 5f       	subi	r30, 0xFE	; 254
     bec:	fe 40       	sbci	r31, 0x0E	; 14
     bee:	40 81       	ld	r20, Z
     bf0:	04 2b       	or	r16, r20
     bf2:	32 2f       	mov	r19, r18
     bf4:	21 2f       	mov	r18, r17
     bf6:	10 2f       	mov	r17, r16
     bf8:	00 27       	eor	r16, r16
     bfa:	fb 01       	movw	r30, r22
     bfc:	ef 5f       	subi	r30, 0xFF	; 255
     bfe:	fe 40       	sbci	r31, 0x0E	; 14
     c00:	40 81       	ld	r20, Z
     c02:	04 2b       	or	r16, r20
     c04:	32 2f       	mov	r19, r18
     c06:	21 2f       	mov	r18, r17
     c08:	10 2f       	mov	r17, r16
     c0a:	00 27       	eor	r16, r16
     c0c:	fb 01       	movw	r30, r22
     c0e:	ff 50       	subi	r31, 0x0F	; 15
     c10:	80 81       	ld	r24, Z
     c12:	08 2b       	or	r16, r24
     c14:	c9 01       	movw	r24, r18
     c16:	b8 01       	movw	r22, r16
     c18:	1f 91       	pop	r17
     c1a:	0f 91       	pop	r16
     c1c:	08 95       	ret

00000c1e <svm_dumpmem>:
     c1e:	cf 92       	push	r12
     c20:	df 92       	push	r13
     c22:	ef 92       	push	r14
     c24:	ff 92       	push	r15
     c26:	cf 93       	push	r28
     c28:	df 93       	push	r29
     c2a:	c1 2c       	mov	r12, r1
     c2c:	d1 2c       	mov	r13, r1
     c2e:	76 01       	movw	r14, r12
     c30:	c0 e5       	ldi	r28, 0x50	; 80
     c32:	d3 e0       	ldi	r29, 0x03	; 3
     c34:	c7 01       	movw	r24, r14
     c36:	b6 01       	movw	r22, r12
     c38:	0e 94 e7 05 	call	0xbce	; 0xbce <load>
     c3c:	9f 93       	push	r25
     c3e:	8f 93       	push	r24
     c40:	7f 93       	push	r23
     c42:	6f 93       	push	r22
     c44:	df 92       	push	r13
     c46:	cf 92       	push	r12
     c48:	df 93       	push	r29
     c4a:	cf 93       	push	r28
     c4c:	0e 94 41 1b 	call	0x3682	; 0x3682 <printf>
     c50:	84 e0       	ldi	r24, 0x04	; 4
     c52:	c8 0e       	add	r12, r24
     c54:	d1 1c       	adc	r13, r1
     c56:	e1 1c       	adc	r14, r1
     c58:	f1 1c       	adc	r15, r1
     c5a:	8d b7       	in	r24, 0x3d	; 61
     c5c:	9e b7       	in	r25, 0x3e	; 62
     c5e:	08 96       	adiw	r24, 0x08	; 8
     c60:	0f b6       	in	r0, 0x3f	; 63
     c62:	f8 94       	cli
     c64:	9e bf       	out	0x3e, r25	; 62
     c66:	0f be       	out	0x3f, r0	; 63
     c68:	8d bf       	out	0x3d, r24	; 61
     c6a:	94 ef       	ldi	r25, 0xF4	; 244
     c6c:	c9 16       	cp	r12, r25
     c6e:	97 e0       	ldi	r25, 0x07	; 7
     c70:	d9 06       	cpc	r13, r25
     c72:	e1 04       	cpc	r14, r1
     c74:	f1 04       	cpc	r15, r1
     c76:	f1 f6       	brne	.-68     	; 0xc34 <svm_dumpmem+0x16>
     c78:	60 e0       	ldi	r22, 0x00	; 0
     c7a:	70 e0       	ldi	r23, 0x00	; 0
     c7c:	cb 01       	movw	r24, r22
     c7e:	df 91       	pop	r29
     c80:	cf 91       	pop	r28
     c82:	ff 90       	pop	r15
     c84:	ef 90       	pop	r14
     c86:	df 90       	pop	r13
     c88:	cf 90       	pop	r12
     c8a:	08 95       	ret

00000c8c <store>:
     c8c:	fb 01       	movw	r30, r22
     c8e:	ff 50       	subi	r31, 0x0F	; 15
     c90:	20 83       	st	Z, r18
     c92:	fb 01       	movw	r30, r22
     c94:	ef 5f       	subi	r30, 0xFF	; 255
     c96:	fe 40       	sbci	r31, 0x0E	; 14
     c98:	30 83       	st	Z, r19
     c9a:	fb 01       	movw	r30, r22
     c9c:	ee 5f       	subi	r30, 0xFE	; 254
     c9e:	fe 40       	sbci	r31, 0x0E	; 14
     ca0:	40 83       	st	Z, r20
     ca2:	fb 01       	movw	r30, r22
     ca4:	ed 5f       	subi	r30, 0xFD	; 253
     ca6:	fe 40       	sbci	r31, 0x0E	; 14
     ca8:	50 83       	st	Z, r21
     caa:	08 95       	ret

00000cac <stack_load_program>:
     cac:	8f ef       	ldi	r24, 0xFF	; 255
     cae:	9f ef       	ldi	r25, 0xFF	; 255
     cb0:	08 95       	ret

00000cb2 <stack_load_globals>:
     cb2:	68 0f       	add	r22, r24
     cb4:	79 1f       	adc	r23, r25
     cb6:	e0 e0       	ldi	r30, 0x00	; 0
     cb8:	f1 ef       	ldi	r31, 0xF1	; 241
     cba:	86 17       	cp	r24, r22
     cbc:	97 07       	cpc	r25, r23
     cbe:	29 f0       	breq	.+10     	; 0xcca <stack_load_globals+0x18>
     cc0:	dc 01       	movw	r26, r24
     cc2:	2d 91       	ld	r18, X+
     cc4:	cd 01       	movw	r24, r26
     cc6:	21 93       	st	Z+, r18
     cc8:	f8 cf       	rjmp	.-16     	; 0xcba <stack_load_globals+0x8>
     cca:	08 95       	ret

00000ccc <stack_init>:
     ccc:	08 95       	ret

00000cce <externalCall>:
     cce:	4f 92       	push	r4
     cd0:	5f 92       	push	r5
     cd2:	6f 92       	push	r6
     cd4:	7f 92       	push	r7
     cd6:	8f 92       	push	r8
     cd8:	9f 92       	push	r9
     cda:	af 92       	push	r10
     cdc:	bf 92       	push	r11
     cde:	cf 92       	push	r12
     ce0:	df 92       	push	r13
     ce2:	ef 92       	push	r14
     ce4:	ff 92       	push	r15
     ce6:	0f 93       	push	r16
     ce8:	1f 93       	push	r17
     cea:	cf 93       	push	r28
     cec:	df 93       	push	r29
     cee:	cd b7       	in	r28, 0x3d	; 61
     cf0:	de b7       	in	r29, 0x3e	; 62
     cf2:	ac 97       	sbiw	r28, 0x2c	; 44
     cf4:	0f b6       	in	r0, 0x3f	; 63
     cf6:	f8 94       	cli
     cf8:	de bf       	out	0x3e, r29	; 62
     cfa:	0f be       	out	0x3f, r0	; 63
     cfc:	cd bf       	out	0x3d, r28	; 61
     cfe:	fc 01       	movw	r30, r24
     d00:	09 a7       	std	Y+41, r16	; 0x29
     d02:	1a a7       	std	Y+42, r17	; 0x2a
     d04:	2b a7       	std	Y+43, r18	; 0x2b
     d06:	3c a7       	std	Y+44, r19	; 0x2c
     d08:	47 01       	movw	r8, r14
     d0a:	a6 80       	ldd	r10, Z+6	; 0x06
     d0c:	b7 80       	ldd	r11, Z+7	; 0x07
     d0e:	a1 14       	cp	r10, r1
     d10:	b1 04       	cpc	r11, r1
     d12:	09 f4       	brne	.+2      	; 0xd16 <externalCall+0x48>
     d14:	5b c0       	rjmp	.+182    	; 0xdcc <externalCall+0xfe>
     d16:	00 81       	ld	r16, Z
     d18:	11 81       	ldd	r17, Z+1	; 0x01
     d1a:	22 81       	ldd	r18, Z+2	; 0x02
     d1c:	33 81       	ldd	r19, Z+3	; 0x03
     d1e:	04 17       	cp	r16, r20
     d20:	15 07       	cpc	r17, r21
     d22:	26 07       	cpc	r18, r22
     d24:	37 07       	cpc	r19, r23
     d26:	09 f0       	breq	.+2      	; 0xd2a <externalCall+0x5c>
     d28:	4f c0       	rjmp	.+158    	; 0xdc8 <externalCall+0xfa>
     d2a:	d4 01       	movw	r26, r8
     d2c:	cd 90       	ld	r12, X+
     d2e:	dd 90       	ld	r13, X+
     d30:	ed 90       	ld	r14, X+
     d32:	fc 90       	ld	r15, X
     d34:	b5 e1       	ldi	r27, 0x15	; 21
     d36:	ab 16       	cp	r10, r27
     d38:	b5 e0       	ldi	r27, 0x05	; 5
     d3a:	bb 06       	cpc	r11, r27
     d3c:	91 f4       	brne	.+36     	; 0xd62 <externalCall+0x94>
     d3e:	c7 01       	movw	r24, r14
     d40:	b6 01       	movw	r22, r12
     d42:	0e 94 e7 05 	call	0xbce	; 0xbce <load>
     d46:	a7 01       	movw	r20, r14
     d48:	96 01       	movw	r18, r12
     d4a:	26 1b       	sub	r18, r22
     d4c:	37 0b       	sbc	r19, r23
     d4e:	48 0b       	sbc	r20, r24
     d50:	59 0b       	sbc	r21, r25
     d52:	f4 01       	movw	r30, r8
     d54:	20 83       	st	Z, r18
     d56:	31 83       	std	Z+1, r19	; 0x01
     d58:	42 83       	std	Z+2, r20	; 0x02
     d5a:	53 83       	std	Z+3, r21	; 0x03
     d5c:	b6 01       	movw	r22, r12
     d5e:	c7 01       	movw	r24, r14
     d60:	39 c0       	rjmp	.+114    	; 0xdd4 <externalCall+0x106>
     d62:	26 01       	movw	r4, r12
     d64:	37 01       	movw	r6, r14
     d66:	e4 80       	ldd	r14, Z+4	; 0x04
     d68:	f5 80       	ldd	r15, Z+5	; 0x05
     d6a:	87 01       	movw	r16, r14
     d6c:	00 0f       	add	r16, r16
     d6e:	11 1f       	adc	r17, r17
     d70:	00 0f       	add	r16, r16
     d72:	11 1f       	adc	r17, r17
     d74:	21 e0       	ldi	r18, 0x01	; 1
     d76:	30 e0       	ldi	r19, 0x00	; 0
     d78:	2c 0f       	add	r18, r28
     d7a:	3d 1f       	adc	r19, r29
     d7c:	02 0f       	add	r16, r18
     d7e:	13 1f       	adc	r17, r19
     d80:	81 2c       	mov	r8, r1
     d82:	91 2c       	mov	r9, r1
     d84:	41 e0       	ldi	r20, 0x01	; 1
     d86:	e4 1a       	sub	r14, r20
     d88:	f1 08       	sbc	r15, r1
     d8a:	54 e0       	ldi	r21, 0x04	; 4
     d8c:	85 1a       	sub	r8, r21
     d8e:	91 08       	sbc	r9, r1
     d90:	f7 fc       	sbrc	r15, 7
     d92:	11 c0       	rjmp	.+34     	; 0xdb6 <externalCall+0xe8>
     d94:	c3 01       	movw	r24, r6
     d96:	b2 01       	movw	r22, r4
     d98:	0e 94 e7 05 	call	0xbce	; 0xbce <load>
     d9c:	f8 01       	movw	r30, r16
     d9e:	e8 0d       	add	r30, r8
     da0:	f9 1d       	adc	r31, r9
     da2:	60 83       	st	Z, r22
     da4:	71 83       	std	Z+1, r23	; 0x01
     da6:	82 83       	std	Z+2, r24	; 0x02
     da8:	93 83       	std	Z+3, r25	; 0x03
     daa:	34 e0       	ldi	r19, 0x04	; 4
     dac:	43 0e       	add	r4, r19
     dae:	51 1c       	adc	r5, r1
     db0:	61 1c       	adc	r6, r1
     db2:	71 1c       	adc	r7, r1
     db4:	e7 cf       	rjmp	.-50     	; 0xd84 <externalCall+0xb6>
     db6:	49 a5       	ldd	r20, Y+41	; 0x29
     db8:	5a a5       	ldd	r21, Y+42	; 0x2a
     dba:	6b a5       	ldd	r22, Y+43	; 0x2b
     dbc:	7c a5       	ldd	r23, Y+44	; 0x2c
     dbe:	ce 01       	movw	r24, r28
     dc0:	01 96       	adiw	r24, 0x01	; 1
     dc2:	f5 01       	movw	r30, r10
     dc4:	09 95       	icall
     dc6:	06 c0       	rjmp	.+12     	; 0xdd4 <externalCall+0x106>
     dc8:	38 96       	adiw	r30, 0x08	; 8
     dca:	9f cf       	rjmp	.-194    	; 0xd0a <externalCall+0x3c>
     dcc:	60 e0       	ldi	r22, 0x00	; 0
     dce:	70 e0       	ldi	r23, 0x00	; 0
     dd0:	80 e0       	ldi	r24, 0x00	; 0
     dd2:	90 e0       	ldi	r25, 0x00	; 0
     dd4:	ac 96       	adiw	r28, 0x2c	; 44
     dd6:	0f b6       	in	r0, 0x3f	; 63
     dd8:	f8 94       	cli
     dda:	de bf       	out	0x3e, r29	; 62
     ddc:	0f be       	out	0x3f, r0	; 63
     dde:	cd bf       	out	0x3d, r28	; 61
     de0:	df 91       	pop	r29
     de2:	cf 91       	pop	r28
     de4:	1f 91       	pop	r17
     de6:	0f 91       	pop	r16
     de8:	ff 90       	pop	r15
     dea:	ef 90       	pop	r14
     dec:	df 90       	pop	r13
     dee:	cf 90       	pop	r12
     df0:	bf 90       	pop	r11
     df2:	af 90       	pop	r10
     df4:	9f 90       	pop	r9
     df6:	8f 90       	pop	r8
     df8:	7f 90       	pop	r7
     dfa:	6f 90       	pop	r6
     dfc:	5f 90       	pop	r5
     dfe:	4f 90       	pop	r4
     e00:	08 95       	ret

00000e02 <protected_function>:
     e02:	4f 92       	push	r4
     e04:	5f 92       	push	r5
     e06:	6f 92       	push	r6
     e08:	7f 92       	push	r7
     e0a:	8f 92       	push	r8
     e0c:	9f 92       	push	r9
     e0e:	af 92       	push	r10
     e10:	bf 92       	push	r11
     e12:	cf 92       	push	r12
     e14:	df 92       	push	r13
     e16:	ef 92       	push	r14
     e18:	ff 92       	push	r15
     e1a:	cf 93       	push	r28
     e1c:	df 93       	push	r29
     e1e:	cd b7       	in	r28, 0x3d	; 61
     e20:	de b7       	in	r29, 0x3e	; 62
     e22:	28 97       	sbiw	r28, 0x08	; 8
     e24:	0f b6       	in	r0, 0x3f	; 63
     e26:	f8 94       	cli
     e28:	de bf       	out	0x3e, r29	; 62
     e2a:	0f be       	out	0x3f, r0	; 63
     e2c:	cd bf       	out	0x3d, r28	; 61
     e2e:	2d 83       	std	Y+5, r18	; 0x05
     e30:	3e 83       	std	Y+6, r19	; 0x06
     e32:	4f 83       	std	Y+7, r20	; 0x07
     e34:	58 87       	std	Y+8, r21	; 0x08
     e36:	c0 90 27 07 	lds	r12, 0x0727
     e3a:	d0 90 28 07 	lds	r13, 0x0728
     e3e:	e0 90 29 07 	lds	r14, 0x0729
     e42:	f0 90 2a 07 	lds	r15, 0x072A
     e46:	eb e2       	ldi	r30, 0x2B	; 43
     e48:	f7 e0       	ldi	r31, 0x07	; 7
     e4a:	19 82       	std	Y+1, r1	; 0x01
     e4c:	1a 82       	std	Y+2, r1	; 0x02
     e4e:	1b 82       	std	Y+3, r1	; 0x03
     e50:	1c 82       	std	Y+4, r1	; 0x04
     e52:	29 81       	ldd	r18, Y+1	; 0x01
     e54:	3a 81       	ldd	r19, Y+2	; 0x02
     e56:	4b 81       	ldd	r20, Y+3	; 0x03
     e58:	5c 81       	ldd	r21, Y+4	; 0x04
     e5a:	2c 15       	cp	r18, r12
     e5c:	3d 05       	cpc	r19, r13
     e5e:	4e 05       	cpc	r20, r14
     e60:	5f 05       	cpc	r21, r15
     e62:	6c f5       	brge	.+90     	; 0xebe <protected_function+0xbc>
     e64:	80 80       	ld	r8, Z
     e66:	91 80       	ldd	r9, Z+1	; 0x01
     e68:	a2 80       	ldd	r10, Z+2	; 0x02
     e6a:	b3 80       	ldd	r11, Z+3	; 0x03
     e6c:	2d 81       	ldd	r18, Y+5	; 0x05
     e6e:	3e 81       	ldd	r19, Y+6	; 0x06
     e70:	4f 81       	ldd	r20, Y+7	; 0x07
     e72:	58 85       	ldd	r21, Y+8	; 0x08
     e74:	28 15       	cp	r18, r8
     e76:	39 05       	cpc	r19, r9
     e78:	4a 05       	cpc	r20, r10
     e7a:	5b 05       	cpc	r21, r11
     e7c:	91 f4       	brne	.+36     	; 0xea2 <protected_function+0xa0>
     e7e:	84 80       	ldd	r8, Z+4	; 0x04
     e80:	95 80       	ldd	r9, Z+5	; 0x05
     e82:	a6 80       	ldd	r10, Z+6	; 0x06
     e84:	b7 80       	ldd	r11, Z+7	; 0x07
     e86:	40 84       	ldd	r4, Z+8	; 0x08
     e88:	51 84       	ldd	r5, Z+9	; 0x09
     e8a:	62 84       	ldd	r6, Z+10	; 0x0a
     e8c:	73 84       	ldd	r7, Z+11	; 0x0b
     e8e:	46 16       	cp	r4, r22
     e90:	57 06       	cpc	r5, r23
     e92:	68 06       	cpc	r6, r24
     e94:	79 06       	cpc	r7, r25
     e96:	2c f0       	brlt	.+10     	; 0xea2 <protected_function+0xa0>
     e98:	68 15       	cp	r22, r8
     e9a:	79 05       	cpc	r23, r9
     e9c:	8a 05       	cpc	r24, r10
     e9e:	9b 05       	cpc	r25, r11
     ea0:	8c f4       	brge	.+34     	; 0xec4 <protected_function+0xc2>
     ea2:	29 81       	ldd	r18, Y+1	; 0x01
     ea4:	3a 81       	ldd	r19, Y+2	; 0x02
     ea6:	4b 81       	ldd	r20, Y+3	; 0x03
     ea8:	5c 81       	ldd	r21, Y+4	; 0x04
     eaa:	2f 5f       	subi	r18, 0xFF	; 255
     eac:	3f 4f       	sbci	r19, 0xFF	; 255
     eae:	4f 4f       	sbci	r20, 0xFF	; 255
     eb0:	5f 4f       	sbci	r21, 0xFF	; 255
     eb2:	29 83       	std	Y+1, r18	; 0x01
     eb4:	3a 83       	std	Y+2, r19	; 0x02
     eb6:	4b 83       	std	Y+3, r20	; 0x03
     eb8:	5c 83       	std	Y+4, r21	; 0x04
     eba:	3c 96       	adiw	r30, 0x0c	; 12
     ebc:	ca cf       	rjmp	.-108    	; 0xe52 <protected_function+0x50>
     ebe:	80 e0       	ldi	r24, 0x00	; 0
     ec0:	90 e0       	ldi	r25, 0x00	; 0
     ec2:	02 c0       	rjmp	.+4      	; 0xec8 <protected_function+0xc6>
     ec4:	81 e0       	ldi	r24, 0x01	; 1
     ec6:	90 e0       	ldi	r25, 0x00	; 0
     ec8:	28 96       	adiw	r28, 0x08	; 8
     eca:	0f b6       	in	r0, 0x3f	; 63
     ecc:	f8 94       	cli
     ece:	de bf       	out	0x3e, r29	; 62
     ed0:	0f be       	out	0x3f, r0	; 63
     ed2:	cd bf       	out	0x3d, r28	; 61
     ed4:	df 91       	pop	r29
     ed6:	cf 91       	pop	r28
     ed8:	ff 90       	pop	r15
     eda:	ef 90       	pop	r14
     edc:	df 90       	pop	r13
     ede:	cf 90       	pop	r12
     ee0:	bf 90       	pop	r11
     ee2:	af 90       	pop	r10
     ee4:	9f 90       	pop	r9
     ee6:	8f 90       	pop	r8
     ee8:	7f 90       	pop	r7
     eea:	6f 90       	pop	r6
     eec:	5f 90       	pop	r5
     eee:	4f 90       	pop	r4
     ef0:	08 95       	ret

00000ef2 <decrypt_function>:
     ef2:	8f 92       	push	r8
     ef4:	9f 92       	push	r9
     ef6:	af 92       	push	r10
     ef8:	bf 92       	push	r11
     efa:	cf 92       	push	r12
     efc:	df 92       	push	r13
     efe:	ef 92       	push	r14
     f00:	ff 92       	push	r15
     f02:	0f 93       	push	r16
     f04:	1f 93       	push	r17
     f06:	cf 93       	push	r28
     f08:	df 93       	push	r29
     f0a:	ec 01       	movw	r28, r24
     f0c:	6a 01       	movw	r12, r20
     f0e:	7b 01       	movw	r14, r22
     f10:	40 91 27 07 	lds	r20, 0x0727
     f14:	50 91 28 07 	lds	r21, 0x0728
     f18:	60 91 29 07 	lds	r22, 0x0729
     f1c:	70 91 2a 07 	lds	r23, 0x072A
     f20:	eb e2       	ldi	r30, 0x2B	; 43
     f22:	f7 e0       	ldi	r31, 0x07	; 7
     f24:	80 e0       	ldi	r24, 0x00	; 0
     f26:	90 e0       	ldi	r25, 0x00	; 0
     f28:	dc 01       	movw	r26, r24
     f2a:	8c 01       	movw	r16, r24
     f2c:	84 17       	cp	r24, r20
     f2e:	95 07       	cpc	r25, r21
     f30:	a6 07       	cpc	r26, r22
     f32:	b7 07       	cpc	r27, r23
     f34:	e4 f5       	brge	.+120    	; 0xfae <decrypt_function+0xbc>
     f36:	84 80       	ldd	r8, Z+4	; 0x04
     f38:	95 80       	ldd	r9, Z+5	; 0x05
     f3a:	a6 80       	ldd	r10, Z+6	; 0x06
     f3c:	b7 80       	ldd	r11, Z+7	; 0x07
     f3e:	8c 14       	cp	r8, r12
     f40:	9d 04       	cpc	r9, r13
     f42:	ae 04       	cpc	r10, r14
     f44:	bf 04       	cpc	r11, r15
     f46:	71 f5       	brne	.+92     	; 0xfa4 <decrypt_function+0xb2>
     f48:	80 80       	ld	r8, Z
     f4a:	91 80       	ldd	r9, Z+1	; 0x01
     f4c:	a2 80       	ldd	r10, Z+2	; 0x02
     f4e:	b3 80       	ldd	r11, Z+3	; 0x03
     f50:	26 e0       	ldi	r18, 0x06	; 6
     f52:	82 16       	cp	r8, r18
     f54:	91 04       	cpc	r9, r1
     f56:	a1 04       	cpc	r10, r1
     f58:	b1 04       	cpc	r11, r1
     f5a:	24 f5       	brge	.+72     	; 0xfa4 <decrypt_function+0xb2>
     f5c:	84 e5       	ldi	r24, 0x54	; 84
     f5e:	91 e0       	ldi	r25, 0x01	; 1
     f60:	0e 94 56 0f 	call	0x1eac	; 0x1eac <cipher_setup>
     f64:	8c e0       	ldi	r24, 0x0C	; 12
     f66:	80 9f       	mul	r24, r16
     f68:	50 01       	movw	r10, r0
     f6a:	81 9f       	mul	r24, r17
     f6c:	b0 0c       	add	r11, r0
     f6e:	11 24       	eor	r1, r1
     f70:	c5 01       	movw	r24, r10
     f72:	8d 5c       	subi	r24, 0xCD	; 205
     f74:	98 4f       	sbci	r25, 0xF8	; 248
     f76:	5c 01       	movw	r10, r24
     f78:	f5 01       	movw	r30, r10
     f7a:	80 81       	ld	r24, Z
     f7c:	91 81       	ldd	r25, Z+1	; 0x01
     f7e:	a2 81       	ldd	r26, Z+2	; 0x02
     f80:	b3 81       	ldd	r27, Z+3	; 0x03
     f82:	c8 16       	cp	r12, r24
     f84:	d9 06       	cpc	r13, r25
     f86:	ea 06       	cpc	r14, r26
     f88:	fb 06       	cpc	r15, r27
     f8a:	8c f4       	brge	.+34     	; 0xfae <decrypt_function+0xbc>
     f8c:	ce 01       	movw	r24, r28
     f8e:	8c 0d       	add	r24, r12
     f90:	9d 1d       	adc	r25, r13
     f92:	bc 01       	movw	r22, r24
     f94:	0e 94 0a 10 	call	0x2014	; 0x2014 <cipher_d_xfrm>
     f98:	94 e0       	ldi	r25, 0x04	; 4
     f9a:	c9 0e       	add	r12, r25
     f9c:	d1 1c       	adc	r13, r1
     f9e:	e1 1c       	adc	r14, r1
     fa0:	f1 1c       	adc	r15, r1
     fa2:	ea cf       	rjmp	.-44     	; 0xf78 <decrypt_function+0x86>
     fa4:	01 96       	adiw	r24, 0x01	; 1
     fa6:	a1 1d       	adc	r26, r1
     fa8:	b1 1d       	adc	r27, r1
     faa:	3c 96       	adiw	r30, 0x0c	; 12
     fac:	be cf       	rjmp	.-132    	; 0xf2a <decrypt_function+0x38>
     fae:	df 91       	pop	r29
     fb0:	cf 91       	pop	r28
     fb2:	1f 91       	pop	r17
     fb4:	0f 91       	pop	r16
     fb6:	ff 90       	pop	r15
     fb8:	ef 90       	pop	r14
     fba:	df 90       	pop	r13
     fbc:	cf 90       	pop	r12
     fbe:	bf 90       	pop	r11
     fc0:	af 90       	pop	r10
     fc2:	9f 90       	pop	r9
     fc4:	8f 90       	pop	r8
     fc6:	08 95       	ret

00000fc8 <encrypt_function>:
     fc8:	4f 92       	push	r4
     fca:	5f 92       	push	r5
     fcc:	6f 92       	push	r6
     fce:	7f 92       	push	r7
     fd0:	8f 92       	push	r8
     fd2:	9f 92       	push	r9
     fd4:	af 92       	push	r10
     fd6:	bf 92       	push	r11
     fd8:	cf 92       	push	r12
     fda:	df 92       	push	r13
     fdc:	ef 92       	push	r14
     fde:	ff 92       	push	r15
     fe0:	0f 93       	push	r16
     fe2:	1f 93       	push	r17
     fe4:	cf 93       	push	r28
     fe6:	df 93       	push	r29
     fe8:	ec 01       	movw	r28, r24
     fea:	c0 90 27 07 	lds	r12, 0x0727
     fee:	d0 90 28 07 	lds	r13, 0x0728
     ff2:	e0 90 29 07 	lds	r14, 0x0729
     ff6:	f0 90 2a 07 	lds	r15, 0x072A
     ffa:	ef e2       	ldi	r30, 0x2F	; 47
     ffc:	f7 e0       	ldi	r31, 0x07	; 7
     ffe:	80 e0       	ldi	r24, 0x00	; 0
    1000:	90 e0       	ldi	r25, 0x00	; 0
    1002:	dc 01       	movw	r26, r24
    1004:	9c 01       	movw	r18, r24
    1006:	8c 15       	cp	r24, r12
    1008:	9d 05       	cpc	r25, r13
    100a:	ae 05       	cpc	r26, r14
    100c:	bf 05       	cpc	r27, r15
    100e:	0c f0       	brlt	.+2      	; 0x1012 <encrypt_function+0x4a>
    1010:	49 c0       	rjmp	.+146    	; 0x10a4 <encrypt_function+0xdc>
    1012:	80 80       	ld	r8, Z
    1014:	91 80       	ldd	r9, Z+1	; 0x01
    1016:	a2 80       	ldd	r10, Z+2	; 0x02
    1018:	b3 80       	ldd	r11, Z+3	; 0x03
    101a:	44 80       	ldd	r4, Z+4	; 0x04
    101c:	55 80       	ldd	r5, Z+5	; 0x05
    101e:	66 80       	ldd	r6, Z+6	; 0x06
    1020:	77 80       	ldd	r7, Z+7	; 0x07
    1022:	44 16       	cp	r4, r20
    1024:	55 06       	cpc	r5, r21
    1026:	66 06       	cpc	r6, r22
    1028:	77 06       	cpc	r7, r23
    102a:	bc f1       	brlt	.+110    	; 0x109a <encrypt_function+0xd2>
    102c:	48 15       	cp	r20, r8
    102e:	59 05       	cpc	r21, r9
    1030:	6a 05       	cpc	r22, r10
    1032:	7b 05       	cpc	r23, r11
    1034:	94 f1       	brlt	.+100    	; 0x109a <encrypt_function+0xd2>
    1036:	8c e0       	ldi	r24, 0x0C	; 12
    1038:	82 9f       	mul	r24, r18
    103a:	80 01       	movw	r16, r0
    103c:	83 9f       	mul	r24, r19
    103e:	10 0d       	add	r17, r0
    1040:	11 24       	eor	r1, r1
    1042:	05 5d       	subi	r16, 0xD5	; 213
    1044:	18 4f       	sbci	r17, 0xF8	; 248
    1046:	f8 01       	movw	r30, r16
    1048:	80 81       	ld	r24, Z
    104a:	91 81       	ldd	r25, Z+1	; 0x01
    104c:	a2 81       	ldd	r26, Z+2	; 0x02
    104e:	b3 81       	ldd	r27, Z+3	; 0x03
    1050:	06 97       	sbiw	r24, 0x06	; 6
    1052:	a1 05       	cpc	r26, r1
    1054:	b1 05       	cpc	r27, r1
    1056:	34 f5       	brge	.+76     	; 0x10a4 <encrypt_function+0xdc>
    1058:	84 e5       	ldi	r24, 0x54	; 84
    105a:	91 e0       	ldi	r25, 0x01	; 1
    105c:	0e 94 56 0f 	call	0x1eac	; 0x1eac <cipher_setup>
    1060:	f8 01       	movw	r30, r16
    1062:	c4 80       	ldd	r12, Z+4	; 0x04
    1064:	d5 80       	ldd	r13, Z+5	; 0x05
    1066:	e6 80       	ldd	r14, Z+6	; 0x06
    1068:	f7 80       	ldd	r15, Z+7	; 0x07
    106a:	08 5f       	subi	r16, 0xF8	; 248
    106c:	1f 4f       	sbci	r17, 0xFF	; 255
    106e:	f8 01       	movw	r30, r16
    1070:	80 81       	ld	r24, Z
    1072:	91 81       	ldd	r25, Z+1	; 0x01
    1074:	a2 81       	ldd	r26, Z+2	; 0x02
    1076:	b3 81       	ldd	r27, Z+3	; 0x03
    1078:	c8 16       	cp	r12, r24
    107a:	d9 06       	cpc	r13, r25
    107c:	ea 06       	cpc	r14, r26
    107e:	fb 06       	cpc	r15, r27
    1080:	8c f4       	brge	.+34     	; 0x10a4 <encrypt_function+0xdc>
    1082:	ce 01       	movw	r24, r28
    1084:	8c 0d       	add	r24, r12
    1086:	9d 1d       	adc	r25, r13
    1088:	bc 01       	movw	r22, r24
    108a:	0e 94 bd 0f 	call	0x1f7a	; 0x1f7a <cipher_e_xfrm>
    108e:	f4 e0       	ldi	r31, 0x04	; 4
    1090:	cf 0e       	add	r12, r31
    1092:	d1 1c       	adc	r13, r1
    1094:	e1 1c       	adc	r14, r1
    1096:	f1 1c       	adc	r15, r1
    1098:	ea cf       	rjmp	.-44     	; 0x106e <encrypt_function+0xa6>
    109a:	01 96       	adiw	r24, 0x01	; 1
    109c:	a1 1d       	adc	r26, r1
    109e:	b1 1d       	adc	r27, r1
    10a0:	3c 96       	adiw	r30, 0x0c	; 12
    10a2:	b0 cf       	rjmp	.-160    	; 0x1004 <encrypt_function+0x3c>
    10a4:	df 91       	pop	r29
    10a6:	cf 91       	pop	r28
    10a8:	1f 91       	pop	r17
    10aa:	0f 91       	pop	r16
    10ac:	ff 90       	pop	r15
    10ae:	ef 90       	pop	r14
    10b0:	df 90       	pop	r13
    10b2:	cf 90       	pop	r12
    10b4:	bf 90       	pop	r11
    10b6:	af 90       	pop	r10
    10b8:	9f 90       	pop	r9
    10ba:	8f 90       	pop	r8
    10bc:	7f 90       	pop	r7
    10be:	6f 90       	pop	r6
    10c0:	5f 90       	pop	r5
    10c2:	4f 90       	pop	r4
    10c4:	08 95       	ret

000010c6 <stack_instruction_hook>:
    10c6:	cf 92       	push	r12
    10c8:	df 92       	push	r13
    10ca:	ef 92       	push	r14
    10cc:	ff 92       	push	r15
    10ce:	0f 93       	push	r16
    10d0:	1f 93       	push	r17
    10d2:	cf 93       	push	r28
    10d4:	df 93       	push	r29
    10d6:	cd b7       	in	r28, 0x3d	; 61
    10d8:	de b7       	in	r29, 0x3e	; 62
    10da:	2e 97       	sbiw	r28, 0x0e	; 14
    10dc:	0f b6       	in	r0, 0x3f	; 63
    10de:	f8 94       	cli
    10e0:	de bf       	out	0x3e, r29	; 62
    10e2:	0f be       	out	0x3f, r0	; 63
    10e4:	cd bf       	out	0x3d, r28	; 61
    10e6:	69 83       	std	Y+1, r22	; 0x01
    10e8:	7a 83       	std	Y+2, r23	; 0x02
    10ea:	8b 83       	std	Y+3, r24	; 0x03
    10ec:	9c 83       	std	Y+4, r25	; 0x04
    10ee:	2d 83       	std	Y+5, r18	; 0x05
    10f0:	3e 83       	std	Y+6, r19	; 0x06
    10f2:	4f 83       	std	Y+7, r20	; 0x07
    10f4:	58 87       	std	Y+8, r21	; 0x08
    10f6:	e9 86       	std	Y+9, r14	; 0x09
    10f8:	fa 86       	std	Y+10, r15	; 0x0a
    10fa:	0b 87       	std	Y+11, r16	; 0x0b
    10fc:	1c 87       	std	Y+12, r17	; 0x0c
    10fe:	de 86       	std	Y+14, r13	; 0x0e
    1100:	cd 86       	std	Y+13, r12	; 0x0d
    1102:	89 81       	ldd	r24, Y+1	; 0x01
    1104:	9a 81       	ldd	r25, Y+2	; 0x02
    1106:	ab 81       	ldd	r26, Y+3	; 0x03
    1108:	bc 81       	ldd	r27, Y+4	; 0x04
    110a:	80 93 51 04 	sts	0x0451, r24
    110e:	90 93 52 04 	sts	0x0452, r25
    1112:	a0 93 53 04 	sts	0x0453, r26
    1116:	b0 93 54 04 	sts	0x0454, r27
    111a:	80 91 4d 04 	lds	r24, 0x044D
    111e:	90 91 4e 04 	lds	r25, 0x044E
    1122:	a0 91 4f 04 	lds	r26, 0x044F
    1126:	b0 91 50 04 	lds	r27, 0x0450
    112a:	00 97       	sbiw	r24, 0x00	; 0
    112c:	a1 05       	cpc	r26, r1
    112e:	b1 05       	cpc	r27, r1
    1130:	49 f0       	breq	.+18     	; 0x1144 <stack_instruction_hook+0x7e>
    1132:	80 91 4d 04 	lds	r24, 0x044D
    1136:	90 91 4e 04 	lds	r25, 0x044E
    113a:	a0 91 4f 04 	lds	r26, 0x044F
    113e:	b0 91 50 04 	lds	r27, 0x0450
    1142:	08 c0       	rjmp	.+16     	; 0x1154 <stack_instruction_hook+0x8e>
    1144:	80 91 51 04 	lds	r24, 0x0451
    1148:	90 91 52 04 	lds	r25, 0x0452
    114c:	a0 91 53 04 	lds	r26, 0x0453
    1150:	b0 91 54 04 	lds	r27, 0x0454
    1154:	bc 01       	movw	r22, r24
    1156:	cd 01       	movw	r24, r26
    1158:	2e 96       	adiw	r28, 0x0e	; 14
    115a:	0f b6       	in	r0, 0x3f	; 63
    115c:	f8 94       	cli
    115e:	de bf       	out	0x3e, r29	; 62
    1160:	0f be       	out	0x3f, r0	; 63
    1162:	cd bf       	out	0x3d, r28	; 61
    1164:	df 91       	pop	r29
    1166:	cf 91       	pop	r28
    1168:	1f 91       	pop	r17
    116a:	0f 91       	pop	r16
    116c:	ff 90       	pop	r15
    116e:	ef 90       	pop	r14
    1170:	df 90       	pop	r13
    1172:	cf 90       	pop	r12
    1174:	08 95       	ret

00001176 <bindings_add>:
    1176:	0f 93       	push	r16
    1178:	1f 93       	push	r17
    117a:	cf 93       	push	r28
    117c:	df 93       	push	r29
    117e:	eb 01       	movw	r28, r22
    1180:	00 97       	sbiw	r24, 0x00	; 0
    1182:	21 f0       	breq	.+8      	; 0x118c <bindings_add+0x16>
    1184:	fc 01       	movw	r30, r24
    1186:	00 e0       	ldi	r16, 0x00	; 0
    1188:	10 e0       	ldi	r17, 0x00	; 0
    118a:	18 c0       	rjmp	.+48     	; 0x11bc <bindings_add+0x46>
    118c:	68 e0       	ldi	r22, 0x08	; 8
    118e:	70 e0       	ldi	r23, 0x00	; 0
    1190:	82 e0       	ldi	r24, 0x02	; 2
    1192:	90 e0       	ldi	r25, 0x00	; 0
    1194:	0e 94 f3 18 	call	0x31e6	; 0x31e6 <calloc>
    1198:	48 81       	ld	r20, Y
    119a:	59 81       	ldd	r21, Y+1	; 0x01
    119c:	6a 81       	ldd	r22, Y+2	; 0x02
    119e:	7b 81       	ldd	r23, Y+3	; 0x03
    11a0:	fc 01       	movw	r30, r24
    11a2:	40 83       	st	Z, r20
    11a4:	51 83       	std	Z+1, r21	; 0x01
    11a6:	62 83       	std	Z+2, r22	; 0x02
    11a8:	73 83       	std	Z+3, r23	; 0x03
    11aa:	2c 81       	ldd	r18, Y+4	; 0x04
    11ac:	3d 81       	ldd	r19, Y+5	; 0x05
    11ae:	35 83       	std	Z+5, r19	; 0x05
    11b0:	24 83       	std	Z+4, r18	; 0x04
    11b2:	2e 81       	ldd	r18, Y+6	; 0x06
    11b4:	3f 81       	ldd	r19, Y+7	; 0x07
    11b6:	37 83       	std	Z+7, r19	; 0x07
    11b8:	26 83       	std	Z+6, r18	; 0x06
    11ba:	28 c0       	rjmp	.+80     	; 0x120c <bindings_add+0x96>
    11bc:	26 81       	ldd	r18, Z+6	; 0x06
    11be:	37 81       	ldd	r19, Z+7	; 0x07
    11c0:	23 2b       	or	r18, r19
    11c2:	21 f0       	breq	.+8      	; 0x11cc <bindings_add+0x56>
    11c4:	0f 5f       	subi	r16, 0xFF	; 255
    11c6:	1f 4f       	sbci	r17, 0xFF	; 255
    11c8:	38 96       	adiw	r30, 0x08	; 8
    11ca:	f8 cf       	rjmp	.-16     	; 0x11bc <bindings_add+0x46>
    11cc:	0e 5f       	subi	r16, 0xFE	; 254
    11ce:	1f 4f       	sbci	r17, 0xFF	; 255
    11d0:	23 e0       	ldi	r18, 0x03	; 3
    11d2:	00 0f       	add	r16, r16
    11d4:	11 1f       	adc	r17, r17
    11d6:	2a 95       	dec	r18
    11d8:	e1 f7       	brne	.-8      	; 0x11d2 <bindings_add+0x5c>
    11da:	b8 01       	movw	r22, r16
    11dc:	0e 94 36 1a 	call	0x346c	; 0x346c <realloc>
    11e0:	f8 01       	movw	r30, r16
    11e2:	70 97       	sbiw	r30, 0x10	; 16
    11e4:	e8 0f       	add	r30, r24
    11e6:	f9 1f       	adc	r31, r25
    11e8:	48 81       	ld	r20, Y
    11ea:	59 81       	ldd	r21, Y+1	; 0x01
    11ec:	6a 81       	ldd	r22, Y+2	; 0x02
    11ee:	7b 81       	ldd	r23, Y+3	; 0x03
    11f0:	40 83       	st	Z, r20
    11f2:	51 83       	std	Z+1, r21	; 0x01
    11f4:	62 83       	std	Z+2, r22	; 0x02
    11f6:	73 83       	std	Z+3, r23	; 0x03
    11f8:	2c 81       	ldd	r18, Y+4	; 0x04
    11fa:	3d 81       	ldd	r19, Y+5	; 0x05
    11fc:	35 83       	std	Z+5, r19	; 0x05
    11fe:	24 83       	std	Z+4, r18	; 0x04
    1200:	2e 81       	ldd	r18, Y+6	; 0x06
    1202:	3f 81       	ldd	r19, Y+7	; 0x07
    1204:	37 83       	std	Z+7, r19	; 0x07
    1206:	26 83       	std	Z+6, r18	; 0x06
    1208:	17 86       	std	Z+15, r1	; 0x0f
    120a:	16 86       	std	Z+14, r1	; 0x0e
    120c:	df 91       	pop	r29
    120e:	cf 91       	pop	r28
    1210:	1f 91       	pop	r17
    1212:	0f 91       	pop	r16
    1214:	08 95       	ret

00001216 <svm_encrypt>:
    1216:	fc 01       	movw	r30, r24
    1218:	40 85       	ldd	r20, Z+8	; 0x08
    121a:	51 85       	ldd	r21, Z+9	; 0x09
    121c:	64 81       	ldd	r22, Z+4	; 0x04
    121e:	75 81       	ldd	r23, Z+5	; 0x05
    1220:	7f 50       	subi	r23, 0x0F	; 15
    1222:	80 81       	ld	r24, Z
    1224:	91 81       	ldd	r25, Z+1	; 0x01
    1226:	9f 50       	subi	r25, 0x0F	; 15
    1228:	0e 94 8f 10 	call	0x211e	; 0x211e <cipher_encrypt_bulk>
    122c:	bc 01       	movw	r22, r24
    122e:	80 e0       	ldi	r24, 0x00	; 0
    1230:	90 e0       	ldi	r25, 0x00	; 0
    1232:	08 95       	ret

00001234 <svm_decrypt>:
    1234:	fc 01       	movw	r30, r24
    1236:	40 85       	ldd	r20, Z+8	; 0x08
    1238:	51 85       	ldd	r21, Z+9	; 0x09
    123a:	64 81       	ldd	r22, Z+4	; 0x04
    123c:	75 81       	ldd	r23, Z+5	; 0x05
    123e:	7f 50       	subi	r23, 0x0F	; 15
    1240:	80 81       	ld	r24, Z
    1242:	91 81       	ldd	r25, Z+1	; 0x01
    1244:	9f 50       	subi	r25, 0x0F	; 15
    1246:	0e 94 eb 10 	call	0x21d6	; 0x21d6 <cipher_decrypt_bulk>
    124a:	bc 01       	movw	r22, r24
    124c:	80 e0       	ldi	r24, 0x00	; 0
    124e:	90 e0       	ldi	r25, 0x00	; 0
    1250:	08 95       	ret

00001252 <stack_eval>:
    1252:	2f 92       	push	r2
    1254:	3f 92       	push	r3
    1256:	4f 92       	push	r4
    1258:	5f 92       	push	r5
    125a:	6f 92       	push	r6
    125c:	7f 92       	push	r7
    125e:	8f 92       	push	r8
    1260:	9f 92       	push	r9
    1262:	af 92       	push	r10
    1264:	bf 92       	push	r11
    1266:	cf 92       	push	r12
    1268:	df 92       	push	r13
    126a:	ef 92       	push	r14
    126c:	ff 92       	push	r15
    126e:	0f 93       	push	r16
    1270:	1f 93       	push	r17
    1272:	cf 93       	push	r28
    1274:	df 93       	push	r29
    1276:	cd b7       	in	r28, 0x3d	; 61
    1278:	de b7       	in	r29, 0x3e	; 62
    127a:	cd 59       	subi	r28, 0x9D	; 157
    127c:	d1 09       	sbc	r29, r1
    127e:	0f b6       	in	r0, 0x3f	; 63
    1280:	f8 94       	cli
    1282:	de bf       	out	0x3e, r29	; 62
    1284:	0f be       	out	0x3f, r0	; 63
    1286:	cd bf       	out	0x3d, r28	; 61
    1288:	cc 56       	subi	r28, 0x6C	; 108
    128a:	df 4f       	sbci	r29, 0xFF	; 255
    128c:	99 83       	std	Y+1, r25	; 0x01
    128e:	88 83       	st	Y, r24
    1290:	c4 59       	subi	r28, 0x94	; 148
    1292:	d0 40       	sbci	r29, 0x00	; 0
    1294:	c7 57       	subi	r28, 0x77	; 119
    1296:	df 4f       	sbci	r29, 0xFF	; 255
    1298:	48 83       	st	Y, r20
    129a:	59 83       	std	Y+1, r21	; 0x01
    129c:	6a 83       	std	Y+2, r22	; 0x02
    129e:	7b 83       	std	Y+3, r23	; 0x03
    12a0:	c9 58       	subi	r28, 0x89	; 137
    12a2:	d0 40       	sbci	r29, 0x00	; 0
    12a4:	79 01       	movw	r14, r18
    12a6:	cb 57       	subi	r28, 0x7B	; 123
    12a8:	df 4f       	sbci	r29, 0xFF	; 255
    12aa:	19 83       	std	Y+1, r17	; 0x01
    12ac:	08 83       	st	Y, r16
    12ae:	c5 58       	subi	r28, 0x85	; 133
    12b0:	d0 40       	sbci	r29, 0x00	; 0
    12b2:	84 ef       	ldi	r24, 0xF4	; 244
    12b4:	97 e0       	ldi	r25, 0x07	; 7
    12b6:	a0 e0       	ldi	r26, 0x00	; 0
    12b8:	b0 e0       	ldi	r27, 0x00	; 0
    12ba:	cf 57       	subi	r28, 0x7F	; 127
    12bc:	df 4f       	sbci	r29, 0xFF	; 255
    12be:	88 83       	st	Y, r24
    12c0:	99 83       	std	Y+1, r25	; 0x01
    12c2:	aa 83       	std	Y+2, r26	; 0x02
    12c4:	bb 83       	std	Y+3, r27	; 0x03
    12c6:	c1 58       	subi	r28, 0x81	; 129
    12c8:	d0 40       	sbci	r29, 0x00	; 0
    12ca:	8d b7       	in	r24, 0x3d	; 61
    12cc:	9e b7       	in	r25, 0x3e	; 62
    12ce:	9c 01       	movw	r18, r24
    12d0:	40 e0       	ldi	r20, 0x00	; 0
    12d2:	50 e0       	ldi	r21, 0x00	; 0
    12d4:	c3 57       	subi	r28, 0x73	; 115
    12d6:	df 4f       	sbci	r29, 0xFF	; 255
    12d8:	28 83       	st	Y, r18
    12da:	39 83       	std	Y+1, r19	; 0x01
    12dc:	4a 83       	std	Y+2, r20	; 0x02
    12de:	5b 83       	std	Y+3, r21	; 0x03
    12e0:	cd 58       	subi	r28, 0x8D	; 141
    12e2:	d0 40       	sbci	r29, 0x00	; 0
    12e4:	0c e0       	ldi	r16, 0x0C	; 12
    12e6:	11 e0       	ldi	r17, 0x01	; 1
    12e8:	ce 56       	subi	r28, 0x6E	; 110
    12ea:	df 4f       	sbci	r29, 0xFF	; 255
    12ec:	19 82       	std	Y+1, r1	; 0x01
    12ee:	18 82       	st	Y, r1
    12f0:	c2 59       	subi	r28, 0x92	; 146
    12f2:	d0 40       	sbci	r29, 0x00	; 0
    12f4:	d8 01       	movw	r26, r16
    12f6:	16 96       	adiw	r26, 0x06	; 6
    12f8:	8d 91       	ld	r24, X+
    12fa:	9c 91       	ld	r25, X
    12fc:	17 97       	sbiw	r26, 0x07	; 7
    12fe:	89 2b       	or	r24, r25
    1300:	91 f0       	breq	.+36     	; 0x1326 <stack_eval+0xd4>
    1302:	b8 01       	movw	r22, r16
    1304:	ce 56       	subi	r28, 0x6E	; 110
    1306:	df 4f       	sbci	r29, 0xFF	; 255
    1308:	88 81       	ld	r24, Y
    130a:	99 81       	ldd	r25, Y+1	; 0x01
    130c:	c2 59       	subi	r28, 0x92	; 146
    130e:	d0 40       	sbci	r29, 0x00	; 0
    1310:	0e 94 bb 08 	call	0x1176	; 0x1176 <bindings_add>
    1314:	ce 56       	subi	r28, 0x6E	; 110
    1316:	df 4f       	sbci	r29, 0xFF	; 255
    1318:	99 83       	std	Y+1, r25	; 0x01
    131a:	88 83       	st	Y, r24
    131c:	c2 59       	subi	r28, 0x92	; 146
    131e:	d0 40       	sbci	r29, 0x00	; 0
    1320:	08 5f       	subi	r16, 0xF8	; 248
    1322:	1f 4f       	sbci	r17, 0xFF	; 255
    1324:	e7 cf       	rjmp	.-50     	; 0x12f4 <stack_eval+0xa2>
    1326:	6b e4       	ldi	r22, 0x4B	; 75
    1328:	71 e0       	ldi	r23, 0x01	; 1
    132a:	8e 01       	movw	r16, r28
    132c:	0f 5f       	subi	r16, 0xFF	; 255
    132e:	1f 4f       	sbci	r17, 0xFF	; 255
    1330:	c8 01       	movw	r24, r16
    1332:	0e 94 00 1b 	call	0x3600	; 0x3600 <strcpy_P>
    1336:	81 ef       	ldi	r24, 0xF1	; 241
    1338:	8f 93       	push	r24
    133a:	1f 92       	push	r1
    133c:	cb 56       	subi	r28, 0x6B	; 107
    133e:	df 4f       	sbci	r29, 0xFF	; 255
    1340:	b8 81       	ld	r27, Y
    1342:	c5 59       	subi	r28, 0x95	; 149
    1344:	d0 40       	sbci	r29, 0x00	; 0
    1346:	bf 93       	push	r27
    1348:	cc 56       	subi	r28, 0x6C	; 108
    134a:	df 4f       	sbci	r29, 0xFF	; 255
    134c:	e8 81       	ld	r30, Y
    134e:	c4 59       	subi	r28, 0x94	; 148
    1350:	d0 40       	sbci	r29, 0x00	; 0
    1352:	ef 93       	push	r30
    1354:	c4 57       	subi	r28, 0x74	; 116
    1356:	df 4f       	sbci	r29, 0xFF	; 255
    1358:	f8 81       	ld	r31, Y
    135a:	cc 58       	subi	r28, 0x8C	; 140
    135c:	d0 40       	sbci	r29, 0x00	; 0
    135e:	ff 93       	push	r31
    1360:	c5 57       	subi	r28, 0x75	; 117
    1362:	df 4f       	sbci	r29, 0xFF	; 255
    1364:	28 81       	ld	r18, Y
    1366:	cb 58       	subi	r28, 0x8B	; 139
    1368:	d0 40       	sbci	r29, 0x00	; 0
    136a:	2f 93       	push	r18
    136c:	c6 57       	subi	r28, 0x76	; 118
    136e:	df 4f       	sbci	r29, 0xFF	; 255
    1370:	38 81       	ld	r19, Y
    1372:	ca 58       	subi	r28, 0x8A	; 138
    1374:	d0 40       	sbci	r29, 0x00	; 0
    1376:	3f 93       	push	r19
    1378:	c7 57       	subi	r28, 0x77	; 119
    137a:	df 4f       	sbci	r29, 0xFF	; 255
    137c:	48 81       	ld	r20, Y
    137e:	c9 58       	subi	r28, 0x89	; 137
    1380:	d0 40       	sbci	r29, 0x00	; 0
    1382:	4f 93       	push	r20
    1384:	1f 93       	push	r17
    1386:	0f 93       	push	r16
    1388:	0e 94 41 1b 	call	0x3682	; 0x3682 <printf>
    138c:	d7 01       	movw	r26, r14
    138e:	0d 90       	ld	r0, X+
    1390:	00 20       	and	r0, r0
    1392:	e9 f7       	brne	.-6      	; 0x138e <stack_eval+0x13c>
    1394:	fd 01       	movw	r30, r26
    1396:	31 97       	sbiw	r30, 0x01	; 1
    1398:	2f 01       	movw	r4, r30
    139a:	4e 18       	sub	r4, r14
    139c:	5f 08       	sbc	r5, r15
    139e:	c2 01       	movw	r24, r4
    13a0:	01 96       	adiw	r24, 0x01	; 1
    13a2:	aa 27       	eor	r26, r26
    13a4:	97 fd       	sbrc	r25, 7
    13a6:	a0 95       	com	r26
    13a8:	ba 2f       	mov	r27, r26
    13aa:	cf 57       	subi	r28, 0x7F	; 127
    13ac:	df 4f       	sbci	r29, 0xFF	; 255
    13ae:	88 80       	ld	r8, Y
    13b0:	99 80       	ldd	r9, Y+1	; 0x01
    13b2:	aa 80       	ldd	r10, Y+2	; 0x02
    13b4:	bb 80       	ldd	r11, Y+3	; 0x03
    13b6:	c1 58       	subi	r28, 0x81	; 129
    13b8:	d0 40       	sbci	r29, 0x00	; 0
    13ba:	88 1a       	sub	r8, r24
    13bc:	99 0a       	sbc	r9, r25
    13be:	aa 0a       	sbc	r10, r26
    13c0:	bb 0a       	sbc	r11, r27
    13c2:	cf 57       	subi	r28, 0x7F	; 127
    13c4:	df 4f       	sbci	r29, 0xFF	; 255
    13c6:	88 82       	st	Y, r8
    13c8:	99 82       	std	Y+1, r9	; 0x01
    13ca:	aa 82       	std	Y+2, r10	; 0x02
    13cc:	bb 82       	std	Y+3, r11	; 0x03
    13ce:	c1 58       	subi	r28, 0x81	; 129
    13d0:	d0 40       	sbci	r29, 0x00	; 0
    13d2:	0f b6       	in	r0, 0x3f	; 63
    13d4:	f8 94       	cli
    13d6:	de bf       	out	0x3e, r29	; 62
    13d8:	0f be       	out	0x3f, r0	; 63
    13da:	cd bf       	out	0x3d, r28	; 61
    13dc:	f7 01       	movw	r30, r14
    13de:	cf 01       	movw	r24, r30
    13e0:	8e 19       	sub	r24, r14
    13e2:	9f 09       	sbc	r25, r15
    13e4:	84 15       	cp	r24, r4
    13e6:	95 05       	cpc	r25, r5
    13e8:	5c f4       	brge	.+22     	; 0x1400 <stack_eval+0x1ae>
    13ea:	41 91       	ld	r20, Z+
    13ec:	cf 01       	movw	r24, r30
    13ee:	8e 19       	sub	r24, r14
    13f0:	9f 09       	sbc	r25, r15
    13f2:	88 0d       	add	r24, r8
    13f4:	99 1d       	adc	r25, r9
    13f6:	dc 01       	movw	r26, r24
    13f8:	a1 50       	subi	r26, 0x01	; 1
    13fa:	bf 40       	sbci	r27, 0x0F	; 15
    13fc:	4c 93       	st	X, r20
    13fe:	ef cf       	rjmp	.-34     	; 0x13de <stack_eval+0x18c>
    1400:	f2 01       	movw	r30, r4
    1402:	e8 0d       	add	r30, r8
    1404:	f9 1d       	adc	r31, r9
    1406:	ff 50       	subi	r31, 0x0F	; 15
    1408:	10 82       	st	Z, r1
    140a:	00 91 40 04 	lds	r16, 0x0440
    140e:	10 91 41 04 	lds	r17, 0x0441
    1412:	01 15       	cp	r16, r1
    1414:	11 05       	cpc	r17, r1
    1416:	09 f4       	brne	.+2      	; 0x141a <stack_eval+0x1c8>
    1418:	76 c0       	rjmp	.+236    	; 0x1506 <stack_eval+0x2b4>
    141a:	b8 01       	movw	r22, r16
    141c:	80 e0       	ldi	r24, 0x00	; 0
    141e:	90 e0       	ldi	r25, 0x00	; 0
    1420:	0e 94 e7 05 	call	0xbce	; 0xbce <load>
    1424:	6b 01       	movw	r12, r22
    1426:	7c 01       	movw	r14, r24
    1428:	60 93 27 07 	sts	0x0727, r22
    142c:	70 93 28 07 	sts	0x0728, r23
    1430:	80 93 29 07 	sts	0x0729, r24
    1434:	90 93 2a 07 	sts	0x072A, r25
    1438:	4b e2       	ldi	r20, 0x2B	; 43
    143a:	24 2e       	mov	r2, r20
    143c:	47 e0       	ldi	r20, 0x07	; 7
    143e:	34 2e       	mov	r3, r20
    1440:	20 e0       	ldi	r18, 0x00	; 0
    1442:	30 e0       	ldi	r19, 0x00	; 0
    1444:	a9 01       	movw	r20, r18
    1446:	b8 01       	movw	r22, r16
    1448:	6c 5f       	subi	r22, 0xFC	; 252
    144a:	7f 4f       	sbci	r23, 0xFF	; 255
    144c:	38 01       	movw	r6, r16
    144e:	ec e0       	ldi	r30, 0x0C	; 12
    1450:	6e 0e       	add	r6, r30
    1452:	71 1c       	adc	r7, r1
    1454:	2c 15       	cp	r18, r12
    1456:	3d 05       	cpc	r19, r13
    1458:	4e 05       	cpc	r20, r14
    145a:	5f 05       	cpc	r21, r15
    145c:	0c f0       	brlt	.+2      	; 0x1460 <stack_eval+0x20e>
    145e:	5b c0       	rjmp	.+182    	; 0x1516 <stack_eval+0x2c4>
    1460:	80 e0       	ldi	r24, 0x00	; 0
    1462:	90 e0       	ldi	r25, 0x00	; 0
    1464:	c6 56       	subi	r28, 0x66	; 102
    1466:	df 4f       	sbci	r29, 0xFF	; 255
    1468:	28 83       	st	Y, r18
    146a:	ca 59       	subi	r28, 0x9A	; 154
    146c:	d0 40       	sbci	r29, 0x00	; 0
    146e:	c5 56       	subi	r28, 0x65	; 101
    1470:	df 4f       	sbci	r29, 0xFF	; 255
    1472:	38 83       	st	Y, r19
    1474:	cb 59       	subi	r28, 0x9B	; 155
    1476:	d0 40       	sbci	r29, 0x00	; 0
    1478:	c4 56       	subi	r28, 0x64	; 100
    147a:	df 4f       	sbci	r29, 0xFF	; 255
    147c:	48 83       	st	Y, r20
    147e:	cc 59       	subi	r28, 0x9C	; 156
    1480:	d0 40       	sbci	r29, 0x00	; 0
    1482:	c3 56       	subi	r28, 0x63	; 99
    1484:	df 4f       	sbci	r29, 0xFF	; 255
    1486:	58 83       	st	Y, r21
    1488:	cd 59       	subi	r28, 0x9D	; 157
    148a:	d0 40       	sbci	r29, 0x00	; 0
    148c:	0e 94 e7 05 	call	0xbce	; 0xbce <load>
    1490:	d1 01       	movw	r26, r2
    1492:	6d 93       	st	X+, r22
    1494:	7d 93       	st	X+, r23
    1496:	8d 93       	st	X+, r24
    1498:	9c 93       	st	X, r25
    149a:	13 97       	sbiw	r26, 0x03	; 3
    149c:	b8 01       	movw	r22, r16
    149e:	68 5f       	subi	r22, 0xF8	; 248
    14a0:	7f 4f       	sbci	r23, 0xFF	; 255
    14a2:	80 e0       	ldi	r24, 0x00	; 0
    14a4:	90 e0       	ldi	r25, 0x00	; 0
    14a6:	0e 94 e7 05 	call	0xbce	; 0xbce <load>
    14aa:	f1 01       	movw	r30, r2
    14ac:	64 83       	std	Z+4, r22	; 0x04
    14ae:	75 83       	std	Z+5, r23	; 0x05
    14b0:	86 83       	std	Z+6, r24	; 0x06
    14b2:	97 83       	std	Z+7, r25	; 0x07
    14b4:	b3 01       	movw	r22, r6
    14b6:	80 e0       	ldi	r24, 0x00	; 0
    14b8:	90 e0       	ldi	r25, 0x00	; 0
    14ba:	0e 94 e7 05 	call	0xbce	; 0xbce <load>
    14be:	d1 01       	movw	r26, r2
    14c0:	18 96       	adiw	r26, 0x08	; 8
    14c2:	6d 93       	st	X+, r22
    14c4:	7d 93       	st	X+, r23
    14c6:	8d 93       	st	X+, r24
    14c8:	9c 93       	st	X, r25
    14ca:	1b 97       	sbiw	r26, 0x0b	; 11
    14cc:	c6 56       	subi	r28, 0x66	; 102
    14ce:	df 4f       	sbci	r29, 0xFF	; 255
    14d0:	28 81       	ld	r18, Y
    14d2:	ca 59       	subi	r28, 0x9A	; 154
    14d4:	d0 40       	sbci	r29, 0x00	; 0
    14d6:	c5 56       	subi	r28, 0x65	; 101
    14d8:	df 4f       	sbci	r29, 0xFF	; 255
    14da:	38 81       	ld	r19, Y
    14dc:	cb 59       	subi	r28, 0x9B	; 155
    14de:	d0 40       	sbci	r29, 0x00	; 0
    14e0:	c4 56       	subi	r28, 0x64	; 100
    14e2:	df 4f       	sbci	r29, 0xFF	; 255
    14e4:	48 81       	ld	r20, Y
    14e6:	cc 59       	subi	r28, 0x9C	; 156
    14e8:	d0 40       	sbci	r29, 0x00	; 0
    14ea:	c3 56       	subi	r28, 0x63	; 99
    14ec:	df 4f       	sbci	r29, 0xFF	; 255
    14ee:	58 81       	ld	r21, Y
    14f0:	cd 59       	subi	r28, 0x9D	; 157
    14f2:	d0 40       	sbci	r29, 0x00	; 0
    14f4:	2f 5f       	subi	r18, 0xFF	; 255
    14f6:	3f 4f       	sbci	r19, 0xFF	; 255
    14f8:	4f 4f       	sbci	r20, 0xFF	; 255
    14fa:	5f 4f       	sbci	r21, 0xFF	; 255
    14fc:	bc e0       	ldi	r27, 0x0C	; 12
    14fe:	2b 0e       	add	r2, r27
    1500:	31 1c       	adc	r3, r1
    1502:	83 01       	movw	r16, r6
    1504:	a0 cf       	rjmp	.-192    	; 0x1446 <stack_eval+0x1f4>
    1506:	10 92 27 07 	sts	0x0727, r1
    150a:	10 92 28 07 	sts	0x0728, r1
    150e:	10 92 29 07 	sts	0x0729, r1
    1512:	10 92 2a 07 	sts	0x072A, r1
    1516:	c5 01       	movw	r24, r10
    1518:	b4 01       	movw	r22, r8
    151a:	64 50       	subi	r22, 0x04	; 4
    151c:	71 09       	sbc	r23, r1
    151e:	81 09       	sbc	r24, r1
    1520:	91 09       	sbc	r25, r1
    1522:	cf 57       	subi	r28, 0x7F	; 127
    1524:	df 4f       	sbci	r29, 0xFF	; 255
    1526:	68 83       	st	Y, r22
    1528:	79 83       	std	Y+1, r23	; 0x01
    152a:	8a 83       	std	Y+2, r24	; 0x02
    152c:	9b 83       	std	Y+3, r25	; 0x03
    152e:	c1 58       	subi	r28, 0x81	; 129
    1530:	d0 40       	sbci	r29, 0x00	; 0
    1532:	43 ef       	ldi	r20, 0xF3	; 243
    1534:	57 e0       	ldi	r21, 0x07	; 7
    1536:	44 19       	sub	r20, r4
    1538:	55 09       	sbc	r21, r5
    153a:	9a 01       	movw	r18, r20
    153c:	44 27       	eor	r20, r20
    153e:	37 fd       	sbrc	r19, 7
    1540:	40 95       	com	r20
    1542:	54 2f       	mov	r21, r20
    1544:	0e 94 46 06 	call	0xc8c	; 0xc8c <store>
    1548:	cf 57       	subi	r28, 0x7F	; 127
    154a:	df 4f       	sbci	r29, 0xFF	; 255
    154c:	68 81       	ld	r22, Y
    154e:	79 81       	ldd	r23, Y+1	; 0x01
    1550:	8a 81       	ldd	r24, Y+2	; 0x02
    1552:	9b 81       	ldd	r25, Y+3	; 0x03
    1554:	c1 58       	subi	r28, 0x81	; 129
    1556:	d0 40       	sbci	r29, 0x00	; 0
    1558:	64 50       	subi	r22, 0x04	; 4
    155a:	71 09       	sbc	r23, r1
    155c:	81 09       	sbc	r24, r1
    155e:	91 09       	sbc	r25, r1
    1560:	cf 57       	subi	r28, 0x7F	; 127
    1562:	df 4f       	sbci	r29, 0xFF	; 255
    1564:	68 83       	st	Y, r22
    1566:	79 83       	std	Y+1, r23	; 0x01
    1568:	8a 83       	std	Y+2, r24	; 0x02
    156a:	9b 83       	std	Y+3, r25	; 0x03
    156c:	c1 58       	subi	r28, 0x81	; 129
    156e:	d0 40       	sbci	r29, 0x00	; 0
    1570:	cb 57       	subi	r28, 0x7B	; 123
    1572:	df 4f       	sbci	r29, 0xFF	; 255
    1574:	a8 81       	ld	r26, Y
    1576:	b9 81       	ldd	r27, Y+1	; 0x01
    1578:	c5 58       	subi	r28, 0x85	; 133
    157a:	d0 40       	sbci	r29, 0x00	; 0
    157c:	9d 01       	movw	r18, r26
    157e:	44 27       	eor	r20, r20
    1580:	37 fd       	sbrc	r19, 7
    1582:	40 95       	com	r20
    1584:	54 2f       	mov	r21, r20
    1586:	0e 94 46 06 	call	0xc8c	; 0xc8c <store>
    158a:	cf 57       	subi	r28, 0x7F	; 127
    158c:	df 4f       	sbci	r29, 0xFF	; 255
    158e:	68 81       	ld	r22, Y
    1590:	79 81       	ldd	r23, Y+1	; 0x01
    1592:	8a 81       	ldd	r24, Y+2	; 0x02
    1594:	9b 81       	ldd	r25, Y+3	; 0x03
    1596:	c1 58       	subi	r28, 0x81	; 129
    1598:	d0 40       	sbci	r29, 0x00	; 0
    159a:	64 50       	subi	r22, 0x04	; 4
    159c:	71 09       	sbc	r23, r1
    159e:	81 09       	sbc	r24, r1
    15a0:	91 09       	sbc	r25, r1
    15a2:	cf 57       	subi	r28, 0x7F	; 127
    15a4:	df 4f       	sbci	r29, 0xFF	; 255
    15a6:	68 83       	st	Y, r22
    15a8:	79 83       	std	Y+1, r23	; 0x01
    15aa:	8a 83       	std	Y+2, r24	; 0x02
    15ac:	9b 83       	std	Y+3, r25	; 0x03
    15ae:	c1 58       	subi	r28, 0x81	; 129
    15b0:	d0 40       	sbci	r29, 0x00	; 0
    15b2:	2f ef       	ldi	r18, 0xFF	; 255
    15b4:	3f ef       	ldi	r19, 0xFF	; 255
    15b6:	a9 01       	movw	r20, r18
    15b8:	0e 94 46 06 	call	0xc8c	; 0xc8c <store>
    15bc:	81 2c       	mov	r8, r1
    15be:	91 2c       	mov	r9, r1
    15c0:	54 01       	movw	r10, r8
    15c2:	c7 57       	subi	r28, 0x77	; 119
    15c4:	df 4f       	sbci	r29, 0xFF	; 255
    15c6:	88 81       	ld	r24, Y
    15c8:	99 81       	ldd	r25, Y+1	; 0x01
    15ca:	aa 81       	ldd	r26, Y+2	; 0x02
    15cc:	bb 81       	ldd	r27, Y+3	; 0x03
    15ce:	c9 58       	subi	r28, 0x89	; 137
    15d0:	d0 40       	sbci	r29, 0x00	; 0
    15d2:	8f 3f       	cpi	r24, 0xFF	; 255
    15d4:	9f 4f       	sbci	r25, 0xFF	; 255
    15d6:	a1 05       	cpc	r26, r1
    15d8:	b1 05       	cpc	r27, r1
    15da:	09 f4       	brne	.+2      	; 0x15de <stack_eval+0x38c>
    15dc:	23 c1       	rjmp	.+582    	; 0x1824 <stack_eval+0x5d2>
    15de:	cc 56       	subi	r28, 0x6C	; 108
    15e0:	df 4f       	sbci	r29, 0xFF	; 255
    15e2:	28 80       	ld	r2, Y
    15e4:	39 80       	ldd	r3, Y+1	; 0x01
    15e6:	c4 59       	subi	r28, 0x94	; 148
    15e8:	d0 40       	sbci	r29, 0x00	; 0
    15ea:	c7 57       	subi	r28, 0x77	; 119
    15ec:	df 4f       	sbci	r29, 0xFF	; 255
    15ee:	28 81       	ld	r18, Y
    15f0:	39 81       	ldd	r19, Y+1	; 0x01
    15f2:	c9 58       	subi	r28, 0x89	; 137
    15f4:	d0 40       	sbci	r29, 0x00	; 0
    15f6:	22 0e       	add	r2, r18
    15f8:	33 1e       	adc	r3, r19
    15fa:	d1 01       	movw	r26, r2
    15fc:	bc 91       	ld	r27, X
    15fe:	cf 56       	subi	r28, 0x6F	; 111
    1600:	df 4f       	sbci	r29, 0xFF	; 255
    1602:	b8 83       	st	Y, r27
    1604:	c1 59       	subi	r28, 0x91	; 145
    1606:	d0 40       	sbci	r29, 0x00	; 0
    1608:	cb 2e       	mov	r12, r27
    160a:	d1 2c       	mov	r13, r1
    160c:	cf 57       	subi	r28, 0x7F	; 127
    160e:	df 4f       	sbci	r29, 0xFF	; 255
    1610:	28 81       	ld	r18, Y
    1612:	39 81       	ldd	r19, Y+1	; 0x01
    1614:	4a 81       	ldd	r20, Y+2	; 0x02
    1616:	5b 81       	ldd	r21, Y+3	; 0x03
    1618:	c1 58       	subi	r28, 0x81	; 129
    161a:	d0 40       	sbci	r29, 0x00	; 0
    161c:	85 01       	movw	r16, r10
    161e:	74 01       	movw	r14, r8
    1620:	c7 57       	subi	r28, 0x77	; 119
    1622:	df 4f       	sbci	r29, 0xFF	; 255
    1624:	68 81       	ld	r22, Y
    1626:	79 81       	ldd	r23, Y+1	; 0x01
    1628:	8a 81       	ldd	r24, Y+2	; 0x02
    162a:	9b 81       	ldd	r25, Y+3	; 0x03
    162c:	c9 58       	subi	r28, 0x89	; 137
    162e:	d0 40       	sbci	r29, 0x00	; 0
    1630:	0e 94 63 08 	call	0x10c6	; 0x10c6 <stack_instruction_hook>
    1634:	cf 56       	subi	r28, 0x6F	; 111
    1636:	df 4f       	sbci	r29, 0xFF	; 255
    1638:	e8 81       	ld	r30, Y
    163a:	c1 59       	subi	r28, 0x91	; 145
    163c:	d0 40       	sbci	r29, 0x00	; 0
    163e:	ec 30       	cpi	r30, 0x0C	; 12
    1640:	28 f4       	brcc	.+10     	; 0x164c <stack_eval+0x3fa>
    1642:	e5 30       	cpi	r30, 0x05	; 5
    1644:	60 f4       	brcc	.+24     	; 0x165e <stack_eval+0x40c>
    1646:	e2 30       	cpi	r30, 0x02	; 2
    1648:	89 f5       	brne	.+98     	; 0x16ac <stack_eval+0x45a>
    164a:	09 c0       	rjmp	.+18     	; 0x165e <stack_eval+0x40c>
    164c:	cf 56       	subi	r28, 0x6F	; 111
    164e:	df 4f       	sbci	r29, 0xFF	; 255
    1650:	f8 81       	ld	r31, Y
    1652:	c1 59       	subi	r28, 0x91	; 145
    1654:	d0 40       	sbci	r29, 0x00	; 0
    1656:	f2 32       	cpi	r31, 0x22	; 34
    1658:	11 f0       	breq	.+4      	; 0x165e <stack_eval+0x40c>
    165a:	f7 33       	cpi	r31, 0x37	; 55
    165c:	39 f5       	brne	.+78     	; 0x16ac <stack_eval+0x45a>
    165e:	d1 01       	movw	r26, r2
    1660:	11 96       	adiw	r26, 0x01	; 1
    1662:	2c 91       	ld	r18, X
    1664:	11 97       	sbiw	r26, 0x01	; 1
    1666:	12 96       	adiw	r26, 0x02	; 2
    1668:	8c 91       	ld	r24, X
    166a:	90 e0       	ldi	r25, 0x00	; 0
    166c:	a0 e0       	ldi	r26, 0x00	; 0
    166e:	b0 e0       	ldi	r27, 0x00	; 0
    1670:	3c 01       	movw	r6, r24
    1672:	55 24       	eor	r5, r5
    1674:	44 24       	eor	r4, r4
    1676:	72 2a       	or	r7, r18
    1678:	f1 01       	movw	r30, r2
    167a:	84 81       	ldd	r24, Z+4	; 0x04
    167c:	48 2a       	or	r4, r24
    167e:	83 81       	ldd	r24, Z+3	; 0x03
    1680:	58 2a       	or	r5, r24
    1682:	c7 57       	subi	r28, 0x77	; 119
    1684:	df 4f       	sbci	r29, 0xFF	; 255
    1686:	28 81       	ld	r18, Y
    1688:	39 81       	ldd	r19, Y+1	; 0x01
    168a:	4a 81       	ldd	r20, Y+2	; 0x02
    168c:	5b 81       	ldd	r21, Y+3	; 0x03
    168e:	c9 58       	subi	r28, 0x89	; 137
    1690:	d0 40       	sbci	r29, 0x00	; 0
    1692:	2b 5f       	subi	r18, 0xFB	; 251
    1694:	3f 4f       	sbci	r19, 0xFF	; 255
    1696:	4f 4f       	sbci	r20, 0xFF	; 255
    1698:	5f 4f       	sbci	r21, 0xFF	; 255
    169a:	cb 57       	subi	r28, 0x7B	; 123
    169c:	df 4f       	sbci	r29, 0xFF	; 255
    169e:	28 83       	st	Y, r18
    16a0:	39 83       	std	Y+1, r19	; 0x01
    16a2:	4a 83       	std	Y+2, r20	; 0x02
    16a4:	5b 83       	std	Y+3, r21	; 0x03
    16a6:	c5 58       	subi	r28, 0x85	; 133
    16a8:	d0 40       	sbci	r29, 0x00	; 0
    16aa:	16 c0       	rjmp	.+44     	; 0x16d8 <stack_eval+0x486>
    16ac:	c7 57       	subi	r28, 0x77	; 119
    16ae:	df 4f       	sbci	r29, 0xFF	; 255
    16b0:	88 81       	ld	r24, Y
    16b2:	99 81       	ldd	r25, Y+1	; 0x01
    16b4:	aa 81       	ldd	r26, Y+2	; 0x02
    16b6:	bb 81       	ldd	r27, Y+3	; 0x03
    16b8:	c9 58       	subi	r28, 0x89	; 137
    16ba:	d0 40       	sbci	r29, 0x00	; 0
    16bc:	01 96       	adiw	r24, 0x01	; 1
    16be:	a1 1d       	adc	r26, r1
    16c0:	b1 1d       	adc	r27, r1
    16c2:	cb 57       	subi	r28, 0x7B	; 123
    16c4:	df 4f       	sbci	r29, 0xFF	; 255
    16c6:	88 83       	st	Y, r24
    16c8:	99 83       	std	Y+1, r25	; 0x01
    16ca:	aa 83       	std	Y+2, r26	; 0x02
    16cc:	bb 83       	std	Y+3, r27	; 0x03
    16ce:	c5 58       	subi	r28, 0x85	; 133
    16d0:	d0 40       	sbci	r29, 0x00	; 0
    16d2:	41 2c       	mov	r4, r1
    16d4:	51 2c       	mov	r5, r1
    16d6:	32 01       	movw	r6, r4
    16d8:	80 91 57 04 	lds	r24, 0x0457
    16dc:	90 91 58 04 	lds	r25, 0x0458
    16e0:	89 2b       	or	r24, r25
    16e2:	09 f4       	brne	.+2      	; 0x16e6 <stack_eval+0x494>
    16e4:	84 c0       	rjmp	.+264    	; 0x17ee <stack_eval+0x59c>
    16e6:	60 e7       	ldi	r22, 0x70	; 112
    16e8:	71 e0       	ldi	r23, 0x01	; 1
    16ea:	ce 01       	movw	r24, r28
    16ec:	01 96       	adiw	r24, 0x01	; 1
    16ee:	0e 94 00 1b 	call	0x3600	; 0x3600 <strcpy_P>
    16f2:	cf 56       	subi	r28, 0x6F	; 111
    16f4:	df 4f       	sbci	r29, 0xFF	; 255
    16f6:	a8 81       	ld	r26, Y
    16f8:	c1 59       	subi	r28, 0x91	; 145
    16fa:	d0 40       	sbci	r29, 0x00	; 0
    16fc:	8a 2f       	mov	r24, r26
    16fe:	90 e0       	ldi	r25, 0x00	; 0
    1700:	88 0f       	add	r24, r24
    1702:	99 1f       	adc	r25, r25
    1704:	c0 57       	subi	r28, 0x70	; 112
    1706:	df 4f       	sbci	r29, 0xFF	; 255
    1708:	b8 81       	ld	r27, Y
    170a:	c0 59       	subi	r28, 0x90	; 144
    170c:	d0 40       	sbci	r29, 0x00	; 0
    170e:	bf 93       	push	r27
    1710:	c1 57       	subi	r28, 0x71	; 113
    1712:	df 4f       	sbci	r29, 0xFF	; 255
    1714:	e8 81       	ld	r30, Y
    1716:	cf 58       	subi	r28, 0x8F	; 143
    1718:	d0 40       	sbci	r29, 0x00	; 0
    171a:	ef 93       	push	r30
    171c:	c2 57       	subi	r28, 0x72	; 114
    171e:	df 4f       	sbci	r29, 0xFF	; 255
    1720:	f8 81       	ld	r31, Y
    1722:	ce 58       	subi	r28, 0x8E	; 142
    1724:	d0 40       	sbci	r29, 0x00	; 0
    1726:	ff 93       	push	r31
    1728:	c3 57       	subi	r28, 0x73	; 115
    172a:	df 4f       	sbci	r29, 0xFF	; 255
    172c:	28 81       	ld	r18, Y
    172e:	cd 58       	subi	r28, 0x8D	; 141
    1730:	d0 40       	sbci	r29, 0x00	; 0
    1732:	2f 93       	push	r18
    1734:	cc 57       	subi	r28, 0x7C	; 124
    1736:	df 4f       	sbci	r29, 0xFF	; 255
    1738:	28 81       	ld	r18, Y
    173a:	c4 58       	subi	r28, 0x84	; 132
    173c:	d0 40       	sbci	r29, 0x00	; 0
    173e:	2f 93       	push	r18
    1740:	cd 57       	subi	r28, 0x7D	; 125
    1742:	df 4f       	sbci	r29, 0xFF	; 255
    1744:	28 81       	ld	r18, Y
    1746:	c3 58       	subi	r28, 0x83	; 131
    1748:	d0 40       	sbci	r29, 0x00	; 0
    174a:	2f 93       	push	r18
    174c:	ce 57       	subi	r28, 0x7E	; 126
    174e:	df 4f       	sbci	r29, 0xFF	; 255
    1750:	28 81       	ld	r18, Y
    1752:	c2 58       	subi	r28, 0x82	; 130
    1754:	d0 40       	sbci	r29, 0x00	; 0
    1756:	2f 93       	push	r18
    1758:	cf 57       	subi	r28, 0x7F	; 127
    175a:	df 4f       	sbci	r29, 0xFF	; 255
    175c:	28 81       	ld	r18, Y
    175e:	c1 58       	subi	r28, 0x81	; 129
    1760:	d0 40       	sbci	r29, 0x00	; 0
    1762:	2f 93       	push	r18
    1764:	bf 92       	push	r11
    1766:	af 92       	push	r10
    1768:	9f 92       	push	r9
    176a:	8f 92       	push	r8
    176c:	7f 92       	push	r7
    176e:	6f 92       	push	r6
    1770:	5f 92       	push	r5
    1772:	4f 92       	push	r4
    1774:	e2 e0       	ldi	r30, 0x02	; 2
    1776:	f0 e0       	ldi	r31, 0x00	; 0
    1778:	ec 0f       	add	r30, r28
    177a:	fd 1f       	adc	r31, r29
    177c:	e8 0f       	add	r30, r24
    177e:	f9 1f       	adc	r31, r25
    1780:	40 81       	ld	r20, Z
    1782:	24 2f       	mov	r18, r20
    1784:	33 27       	eor	r19, r19
    1786:	27 fd       	sbrc	r18, 7
    1788:	30 95       	com	r19
    178a:	3f 93       	push	r19
    178c:	4f 93       	push	r20
    178e:	e1 e0       	ldi	r30, 0x01	; 1
    1790:	f0 e0       	ldi	r31, 0x00	; 0
    1792:	ec 0f       	add	r30, r28
    1794:	fd 1f       	adc	r31, r29
    1796:	e8 0f       	add	r30, r24
    1798:	f9 1f       	adc	r31, r25
    179a:	20 81       	ld	r18, Z
    179c:	82 2f       	mov	r24, r18
    179e:	99 27       	eor	r25, r25
    17a0:	87 fd       	sbrc	r24, 7
    17a2:	90 95       	com	r25
    17a4:	9f 93       	push	r25
    17a6:	2f 93       	push	r18
    17a8:	c4 57       	subi	r28, 0x74	; 116
    17aa:	df 4f       	sbci	r29, 0xFF	; 255
    17ac:	38 81       	ld	r19, Y
    17ae:	cc 58       	subi	r28, 0x8C	; 140
    17b0:	d0 40       	sbci	r29, 0x00	; 0
    17b2:	3f 93       	push	r19
    17b4:	c5 57       	subi	r28, 0x75	; 117
    17b6:	df 4f       	sbci	r29, 0xFF	; 255
    17b8:	48 81       	ld	r20, Y
    17ba:	cb 58       	subi	r28, 0x8B	; 139
    17bc:	d0 40       	sbci	r29, 0x00	; 0
    17be:	4f 93       	push	r20
    17c0:	c6 57       	subi	r28, 0x76	; 118
    17c2:	df 4f       	sbci	r29, 0xFF	; 255
    17c4:	58 81       	ld	r21, Y
    17c6:	ca 58       	subi	r28, 0x8A	; 138
    17c8:	d0 40       	sbci	r29, 0x00	; 0
    17ca:	5f 93       	push	r21
    17cc:	c7 57       	subi	r28, 0x77	; 119
    17ce:	df 4f       	sbci	r29, 0xFF	; 255
    17d0:	88 81       	ld	r24, Y
    17d2:	c9 58       	subi	r28, 0x89	; 137
    17d4:	d0 40       	sbci	r29, 0x00	; 0
    17d6:	8f 93       	push	r24
    17d8:	ab e5       	ldi	r26, 0x5B	; 91
    17da:	b3 e0       	ldi	r27, 0x03	; 3
    17dc:	bf 93       	push	r27
    17de:	af 93       	push	r26
    17e0:	0e 94 41 1b 	call	0x3682	; 0x3682 <printf>
    17e4:	0f b6       	in	r0, 0x3f	; 63
    17e6:	f8 94       	cli
    17e8:	de bf       	out	0x3e, r29	; 62
    17ea:	0f be       	out	0x3f, r0	; 63
    17ec:	cd bf       	out	0x3d, r28	; 61
    17ee:	cf 56       	subi	r28, 0x6F	; 111
    17f0:	df 4f       	sbci	r29, 0xFF	; 255
    17f2:	38 81       	ld	r19, Y
    17f4:	c1 59       	subi	r28, 0x91	; 145
    17f6:	d0 40       	sbci	r29, 0x00	; 0
    17f8:	23 2f       	mov	r18, r19
    17fa:	30 e0       	ldi	r19, 0x00	; 0
    17fc:	40 e0       	ldi	r20, 0x00	; 0
    17fe:	50 e0       	ldi	r21, 0x00	; 0
    1800:	ca 56       	subi	r28, 0x6A	; 106
    1802:	df 4f       	sbci	r29, 0xFF	; 255
    1804:	28 83       	st	Y, r18
    1806:	39 83       	std	Y+1, r19	; 0x01
    1808:	4a 83       	std	Y+2, r20	; 0x02
    180a:	5b 83       	std	Y+3, r21	; 0x03
    180c:	c6 59       	subi	r28, 0x96	; 150
    180e:	d0 40       	sbci	r29, 0x00	; 0
    1810:	f9 01       	movw	r30, r18
    1812:	32 97       	sbiw	r30, 0x02	; 2
    1814:	e7 33       	cpi	r30, 0x37	; 55
    1816:	f1 05       	cpc	r31, r1
    1818:	08 f0       	brcs	.+2      	; 0x181c <stack_eval+0x5ca>
    181a:	4d c2       	rjmp	.+1178   	; 0x1cb6 <stack_eval+0xa64>
    181c:	ec 5c       	subi	r30, 0xCC	; 204
    181e:	ff 4f       	sbci	r31, 0xFF	; 255
    1820:	0c 94 b1 18 	jmp	0x3162	; 0x3162 <__tablejump2__>
    1824:	ce 56       	subi	r28, 0x6E	; 110
    1826:	df 4f       	sbci	r29, 0xFF	; 255
    1828:	88 81       	ld	r24, Y
    182a:	99 81       	ldd	r25, Y+1	; 0x01
    182c:	c2 59       	subi	r28, 0x92	; 146
    182e:	d0 40       	sbci	r29, 0x00	; 0
    1830:	0e 94 a7 19 	call	0x334e	; 0x334e <free>
    1834:	c4 01       	movw	r24, r8
    1836:	20 c3       	rjmp	.+1600   	; 0x1e78 <stack_eval+0xc26>
    1838:	cf 57       	subi	r28, 0x7F	; 127
    183a:	df 4f       	sbci	r29, 0xFF	; 255
    183c:	48 80       	ld	r4, Y
    183e:	59 80       	ldd	r5, Y+1	; 0x01
    1840:	6a 80       	ldd	r6, Y+2	; 0x02
    1842:	7b 80       	ldd	r7, Y+3	; 0x03
    1844:	c1 58       	subi	r28, 0x81	; 129
    1846:	d0 40       	sbci	r29, 0x00	; 0
    1848:	c3 01       	movw	r24, r6
    184a:	b2 01       	movw	r22, r4
    184c:	0e 94 e7 05 	call	0xbce	; 0xbce <load>
    1850:	16 2f       	mov	r17, r22
    1852:	07 2f       	mov	r16, r23
    1854:	f8 2e       	mov	r15, r24
    1856:	e9 2e       	mov	r14, r25
    1858:	a5 01       	movw	r20, r10
    185a:	94 01       	movw	r18, r8
    185c:	c3 01       	movw	r24, r6
    185e:	b2 01       	movw	r22, r4
    1860:	0e 94 46 06 	call	0xc8c	; 0xc8c <store>
    1864:	81 2e       	mov	r8, r17
    1866:	90 2e       	mov	r9, r16
    1868:	af 2c       	mov	r10, r15
    186a:	be 2c       	mov	r11, r14
    186c:	cb 57       	subi	r28, 0x7B	; 123
    186e:	df 4f       	sbci	r29, 0xFF	; 255
    1870:	28 81       	ld	r18, Y
    1872:	39 81       	ldd	r19, Y+1	; 0x01
    1874:	4a 81       	ldd	r20, Y+2	; 0x02
    1876:	5b 81       	ldd	r21, Y+3	; 0x03
    1878:	c5 58       	subi	r28, 0x85	; 133
    187a:	d0 40       	sbci	r29, 0x00	; 0
    187c:	c7 57       	subi	r28, 0x77	; 119
    187e:	df 4f       	sbci	r29, 0xFF	; 255
    1880:	28 83       	st	Y, r18
    1882:	39 83       	std	Y+1, r19	; 0x01
    1884:	4a 83       	std	Y+2, r20	; 0x02
    1886:	5b 83       	std	Y+3, r21	; 0x03
    1888:	c9 58       	subi	r28, 0x89	; 137
    188a:	d0 40       	sbci	r29, 0x00	; 0
    188c:	9a ce       	rjmp	.-716    	; 0x15c2 <stack_eval+0x370>
    188e:	c3 57       	subi	r28, 0x73	; 115
    1890:	df 4f       	sbci	r29, 0xFF	; 255
    1892:	88 80       	ld	r8, Y
    1894:	99 80       	ldd	r9, Y+1	; 0x01
    1896:	aa 80       	ldd	r10, Y+2	; 0x02
    1898:	bb 80       	ldd	r11, Y+3	; 0x03
    189a:	cd 58       	subi	r28, 0x8D	; 141
    189c:	d0 40       	sbci	r29, 0x00	; 0
    189e:	48 e0       	ldi	r20, 0x08	; 8
    18a0:	84 0e       	add	r8, r20
    18a2:	91 1c       	adc	r9, r1
    18a4:	a1 1c       	adc	r10, r1
    18a6:	b1 1c       	adc	r11, r1
    18a8:	84 0c       	add	r8, r4
    18aa:	95 1c       	adc	r9, r5
    18ac:	a6 1c       	adc	r10, r6
    18ae:	b7 1c       	adc	r11, r7
    18b0:	dd cf       	rjmp	.-70     	; 0x186c <stack_eval+0x61a>
    18b2:	b3 01       	movw	r22, r6
    18b4:	a2 01       	movw	r20, r4
    18b6:	cc 56       	subi	r28, 0x6C	; 108
    18b8:	df 4f       	sbci	r29, 0xFF	; 255
    18ba:	88 81       	ld	r24, Y
    18bc:	99 81       	ldd	r25, Y+1	; 0x01
    18be:	c4 59       	subi	r28, 0x94	; 148
    18c0:	d0 40       	sbci	r29, 0x00	; 0
    18c2:	0e 94 79 07 	call	0xef2	; 0xef2 <decrypt_function>
    18c6:	cf 57       	subi	r28, 0x7F	; 127
    18c8:	df 4f       	sbci	r29, 0xFF	; 255
    18ca:	68 81       	ld	r22, Y
    18cc:	79 81       	ldd	r23, Y+1	; 0x01
    18ce:	8a 81       	ldd	r24, Y+2	; 0x02
    18d0:	9b 81       	ldd	r25, Y+3	; 0x03
    18d2:	c1 58       	subi	r28, 0x81	; 129
    18d4:	d0 40       	sbci	r29, 0x00	; 0
    18d6:	64 50       	subi	r22, 0x04	; 4
    18d8:	71 09       	sbc	r23, r1
    18da:	81 09       	sbc	r24, r1
    18dc:	91 09       	sbc	r25, r1
    18de:	cf 57       	subi	r28, 0x7F	; 127
    18e0:	df 4f       	sbci	r29, 0xFF	; 255
    18e2:	68 83       	st	Y, r22
    18e4:	79 83       	std	Y+1, r23	; 0x01
    18e6:	8a 83       	std	Y+2, r24	; 0x02
    18e8:	9b 83       	std	Y+3, r25	; 0x03
    18ea:	c1 58       	subi	r28, 0x81	; 129
    18ec:	d0 40       	sbci	r29, 0x00	; 0
    18ee:	cb 57       	subi	r28, 0x7B	; 123
    18f0:	df 4f       	sbci	r29, 0xFF	; 255
    18f2:	28 81       	ld	r18, Y
    18f4:	39 81       	ldd	r19, Y+1	; 0x01
    18f6:	4a 81       	ldd	r20, Y+2	; 0x02
    18f8:	5b 81       	ldd	r21, Y+3	; 0x03
    18fa:	c5 58       	subi	r28, 0x85	; 133
    18fc:	d0 40       	sbci	r29, 0x00	; 0
    18fe:	0e 94 46 06 	call	0xc8c	; 0xc8c <store>
    1902:	80 91 55 04 	lds	r24, 0x0455
    1906:	90 91 56 04 	lds	r25, 0x0456
    190a:	89 2b       	or	r24, r25
    190c:	09 f4       	brne	.+2      	; 0x1910 <stack_eval+0x6be>
    190e:	ab c2       	rjmp	.+1366   	; 0x1e66 <stack_eval+0xc14>
    1910:	cc 57       	subi	r28, 0x7C	; 124
    1912:	df 4f       	sbci	r29, 0xFF	; 255
    1914:	88 81       	ld	r24, Y
    1916:	c4 58       	subi	r28, 0x84	; 132
    1918:	d0 40       	sbci	r29, 0x00	; 0
    191a:	8f 93       	push	r24
    191c:	cd 57       	subi	r28, 0x7D	; 125
    191e:	df 4f       	sbci	r29, 0xFF	; 255
    1920:	88 81       	ld	r24, Y
    1922:	c3 58       	subi	r28, 0x83	; 131
    1924:	d0 40       	sbci	r29, 0x00	; 0
    1926:	8f 93       	push	r24
    1928:	ce 57       	subi	r28, 0x7E	; 126
    192a:	df 4f       	sbci	r29, 0xFF	; 255
    192c:	88 81       	ld	r24, Y
    192e:	c2 58       	subi	r28, 0x82	; 130
    1930:	d0 40       	sbci	r29, 0x00	; 0
    1932:	8f 93       	push	r24
    1934:	cf 57       	subi	r28, 0x7F	; 127
    1936:	df 4f       	sbci	r29, 0xFF	; 255
    1938:	88 81       	ld	r24, Y
    193a:	c1 58       	subi	r28, 0x81	; 129
    193c:	d0 40       	sbci	r29, 0x00	; 0
    193e:	8f 93       	push	r24
    1940:	7f 92       	push	r7
    1942:	6f 92       	push	r6
    1944:	5f 92       	push	r5
    1946:	4f 92       	push	r4
    1948:	af e7       	ldi	r26, 0x7F	; 127
    194a:	b3 e0       	ldi	r27, 0x03	; 3
    194c:	bf 93       	push	r27
    194e:	af 93       	push	r26
    1950:	0e 94 41 1b 	call	0x3682	; 0x3682 <printf>
    1954:	0f b6       	in	r0, 0x3f	; 63
    1956:	f8 94       	cli
    1958:	de bf       	out	0x3e, r29	; 62
    195a:	0f be       	out	0x3f, r0	; 63
    195c:	cd bf       	out	0x3d, r28	; 61
    195e:	cb 57       	subi	r28, 0x7B	; 123
    1960:	df 4f       	sbci	r29, 0xFF	; 255
    1962:	48 82       	st	Y, r4
    1964:	59 82       	std	Y+1, r5	; 0x01
    1966:	6a 82       	std	Y+2, r6	; 0x02
    1968:	7b 82       	std	Y+3, r7	; 0x03
    196a:	c5 58       	subi	r28, 0x85	; 133
    196c:	d0 40       	sbci	r29, 0x00	; 0
    196e:	7e cf       	rjmp	.-260    	; 0x186c <stack_eval+0x61a>
    1970:	81 14       	cp	r8, r1
    1972:	91 04       	cpc	r9, r1
    1974:	a1 04       	cpc	r10, r1
    1976:	b1 04       	cpc	r11, r1
    1978:	09 f4       	brne	.+2      	; 0x197c <stack_eval+0x72a>
    197a:	75 c2       	rjmp	.+1258   	; 0x1e66 <stack_eval+0xc14>
    197c:	77 cf       	rjmp	.-274    	; 0x186c <stack_eval+0x61a>
    197e:	81 14       	cp	r8, r1
    1980:	91 04       	cpc	r9, r1
    1982:	a1 04       	cpc	r10, r1
    1984:	b1 04       	cpc	r11, r1
    1986:	09 f0       	breq	.+2      	; 0x198a <stack_eval+0x738>
    1988:	6e c2       	rjmp	.+1244   	; 0x1e66 <stack_eval+0xc14>
    198a:	70 cf       	rjmp	.-288    	; 0x186c <stack_eval+0x61a>
    198c:	cf 57       	subi	r28, 0x7F	; 127
    198e:	df 4f       	sbci	r29, 0xFF	; 255
    1990:	68 81       	ld	r22, Y
    1992:	79 81       	ldd	r23, Y+1	; 0x01
    1994:	8a 81       	ldd	r24, Y+2	; 0x02
    1996:	9b 81       	ldd	r25, Y+3	; 0x03
    1998:	c1 58       	subi	r28, 0x81	; 129
    199a:	d0 40       	sbci	r29, 0x00	; 0
    199c:	64 50       	subi	r22, 0x04	; 4
    199e:	71 09       	sbc	r23, r1
    19a0:	81 09       	sbc	r24, r1
    19a2:	91 09       	sbc	r25, r1
    19a4:	cf 57       	subi	r28, 0x7F	; 127
    19a6:	df 4f       	sbci	r29, 0xFF	; 255
    19a8:	68 83       	st	Y, r22
    19aa:	79 83       	std	Y+1, r23	; 0x01
    19ac:	8a 83       	std	Y+2, r24	; 0x02
    19ae:	9b 83       	std	Y+3, r25	; 0x03
    19b0:	c1 58       	subi	r28, 0x81	; 129
    19b2:	d0 40       	sbci	r29, 0x00	; 0
    19b4:	c3 57       	subi	r28, 0x73	; 115
    19b6:	df 4f       	sbci	r29, 0xFF	; 255
    19b8:	28 81       	ld	r18, Y
    19ba:	39 81       	ldd	r19, Y+1	; 0x01
    19bc:	4a 81       	ldd	r20, Y+2	; 0x02
    19be:	5b 81       	ldd	r21, Y+3	; 0x03
    19c0:	cd 58       	subi	r28, 0x8D	; 141
    19c2:	d0 40       	sbci	r29, 0x00	; 0
    19c4:	0e 94 46 06 	call	0xc8c	; 0xc8c <store>
    19c8:	cf 57       	subi	r28, 0x7F	; 127
    19ca:	df 4f       	sbci	r29, 0xFF	; 255
    19cc:	88 81       	ld	r24, Y
    19ce:	99 81       	ldd	r25, Y+1	; 0x01
    19d0:	aa 81       	ldd	r26, Y+2	; 0x02
    19d2:	bb 81       	ldd	r27, Y+3	; 0x03
    19d4:	c1 58       	subi	r28, 0x81	; 129
    19d6:	d0 40       	sbci	r29, 0x00	; 0
    19d8:	c3 57       	subi	r28, 0x73	; 115
    19da:	df 4f       	sbci	r29, 0xFF	; 255
    19dc:	88 83       	st	Y, r24
    19de:	99 83       	std	Y+1, r25	; 0x01
    19e0:	aa 83       	std	Y+2, r26	; 0x02
    19e2:	bb 83       	std	Y+3, r27	; 0x03
    19e4:	cd 58       	subi	r28, 0x8D	; 141
    19e6:	d0 40       	sbci	r29, 0x00	; 0
    19e8:	ac ef       	ldi	r26, 0xFC	; 252
    19ea:	bf ef       	ldi	r27, 0xFF	; 255
    19ec:	a3 01       	movw	r20, r6
    19ee:	92 01       	movw	r18, r4
    19f0:	0e 94 7d 18 	call	0x30fa	; 0x30fa <__mulohisi3>
    19f4:	c3 57       	subi	r28, 0x73	; 115
    19f6:	df 4f       	sbci	r29, 0xFF	; 255
    19f8:	28 81       	ld	r18, Y
    19fa:	39 81       	ldd	r19, Y+1	; 0x01
    19fc:	4a 81       	ldd	r20, Y+2	; 0x02
    19fe:	5b 81       	ldd	r21, Y+3	; 0x03
    1a00:	cd 58       	subi	r28, 0x8D	; 141
    1a02:	d0 40       	sbci	r29, 0x00	; 0
    1a04:	62 0f       	add	r22, r18
    1a06:	73 1f       	adc	r23, r19
    1a08:	84 1f       	adc	r24, r20
    1a0a:	95 1f       	adc	r25, r21
    1a0c:	cf 57       	subi	r28, 0x7F	; 127
    1a0e:	df 4f       	sbci	r29, 0xFF	; 255
    1a10:	68 83       	st	Y, r22
    1a12:	79 83       	std	Y+1, r23	; 0x01
    1a14:	8a 83       	std	Y+2, r24	; 0x02
    1a16:	9b 83       	std	Y+3, r25	; 0x03
    1a18:	c1 58       	subi	r28, 0x81	; 129
    1a1a:	d0 40       	sbci	r29, 0x00	; 0
    1a1c:	27 cf       	rjmp	.-434    	; 0x186c <stack_eval+0x61a>
    1a1e:	b3 01       	movw	r22, r6
    1a20:	a2 01       	movw	r20, r4
    1a22:	82 e0       	ldi	r24, 0x02	; 2
    1a24:	44 0f       	add	r20, r20
    1a26:	55 1f       	adc	r21, r21
    1a28:	66 1f       	adc	r22, r22
    1a2a:	77 1f       	adc	r23, r23
    1a2c:	8a 95       	dec	r24
    1a2e:	d1 f7       	brne	.-12     	; 0x1a24 <stack_eval+0x7d2>
    1a30:	cf 57       	subi	r28, 0x7F	; 127
    1a32:	df 4f       	sbci	r29, 0xFF	; 255
    1a34:	88 81       	ld	r24, Y
    1a36:	99 81       	ldd	r25, Y+1	; 0x01
    1a38:	aa 81       	ldd	r26, Y+2	; 0x02
    1a3a:	bb 81       	ldd	r27, Y+3	; 0x03
    1a3c:	c1 58       	subi	r28, 0x81	; 129
    1a3e:	d0 40       	sbci	r29, 0x00	; 0
    1a40:	84 0f       	add	r24, r20
    1a42:	95 1f       	adc	r25, r21
    1a44:	a6 1f       	adc	r26, r22
    1a46:	b7 1f       	adc	r27, r23
    1a48:	cf 57       	subi	r28, 0x7F	; 127
    1a4a:	df 4f       	sbci	r29, 0xFF	; 255
    1a4c:	88 83       	st	Y, r24
    1a4e:	99 83       	std	Y+1, r25	; 0x01
    1a50:	aa 83       	std	Y+2, r26	; 0x02
    1a52:	bb 83       	std	Y+3, r27	; 0x03
    1a54:	c1 58       	subi	r28, 0x81	; 129
    1a56:	d0 40       	sbci	r29, 0x00	; 0
    1a58:	09 cf       	rjmp	.-494    	; 0x186c <stack_eval+0x61a>
    1a5a:	c7 57       	subi	r28, 0x77	; 119
    1a5c:	df 4f       	sbci	r29, 0xFF	; 255
    1a5e:	48 81       	ld	r20, Y
    1a60:	59 81       	ldd	r21, Y+1	; 0x01
    1a62:	6a 81       	ldd	r22, Y+2	; 0x02
    1a64:	7b 81       	ldd	r23, Y+3	; 0x03
    1a66:	c9 58       	subi	r28, 0x89	; 137
    1a68:	d0 40       	sbci	r29, 0x00	; 0
    1a6a:	cc 56       	subi	r28, 0x6C	; 108
    1a6c:	df 4f       	sbci	r29, 0xFF	; 255
    1a6e:	88 81       	ld	r24, Y
    1a70:	99 81       	ldd	r25, Y+1	; 0x01
    1a72:	c4 59       	subi	r28, 0x94	; 148
    1a74:	d0 40       	sbci	r29, 0x00	; 0
    1a76:	0e 94 e4 07 	call	0xfc8	; 0xfc8 <encrypt_function>
    1a7a:	c3 57       	subi	r28, 0x73	; 115
    1a7c:	df 4f       	sbci	r29, 0xFF	; 255
    1a7e:	88 81       	ld	r24, Y
    1a80:	99 81       	ldd	r25, Y+1	; 0x01
    1a82:	aa 81       	ldd	r26, Y+2	; 0x02
    1a84:	bb 81       	ldd	r27, Y+3	; 0x03
    1a86:	cd 58       	subi	r28, 0x8D	; 141
    1a88:	d0 40       	sbci	r29, 0x00	; 0
    1a8a:	cf 57       	subi	r28, 0x7F	; 127
    1a8c:	df 4f       	sbci	r29, 0xFF	; 255
    1a8e:	88 83       	st	Y, r24
    1a90:	99 83       	std	Y+1, r25	; 0x01
    1a92:	aa 83       	std	Y+2, r26	; 0x02
    1a94:	bb 83       	std	Y+3, r27	; 0x03
    1a96:	c1 58       	subi	r28, 0x81	; 129
    1a98:	d0 40       	sbci	r29, 0x00	; 0
    1a9a:	bc 01       	movw	r22, r24
    1a9c:	cd 01       	movw	r24, r26
    1a9e:	0e 94 e7 05 	call	0xbce	; 0xbce <load>
    1aa2:	6b 01       	movw	r12, r22
    1aa4:	7c 01       	movw	r14, r24
    1aa6:	ee 24       	eor	r14, r14
    1aa8:	ff 24       	eor	r15, r15
    1aaa:	c3 57       	subi	r28, 0x73	; 115
    1aac:	df 4f       	sbci	r29, 0xFF	; 255
    1aae:	68 81       	ld	r22, Y
    1ab0:	79 81       	ldd	r23, Y+1	; 0x01
    1ab2:	8a 81       	ldd	r24, Y+2	; 0x02
    1ab4:	9b 81       	ldd	r25, Y+3	; 0x03
    1ab6:	cd 58       	subi	r28, 0x8D	; 141
    1ab8:	d0 40       	sbci	r29, 0x00	; 0
    1aba:	6c 5f       	subi	r22, 0xFC	; 252
    1abc:	7f 4f       	sbci	r23, 0xFF	; 255
    1abe:	8f 4f       	sbci	r24, 0xFF	; 255
    1ac0:	9f 4f       	sbci	r25, 0xFF	; 255
    1ac2:	cf 57       	subi	r28, 0x7F	; 127
    1ac4:	df 4f       	sbci	r29, 0xFF	; 255
    1ac6:	68 83       	st	Y, r22
    1ac8:	79 83       	std	Y+1, r23	; 0x01
    1aca:	8a 83       	std	Y+2, r24	; 0x02
    1acc:	9b 83       	std	Y+3, r25	; 0x03
    1ace:	c1 58       	subi	r28, 0x81	; 129
    1ad0:	d0 40       	sbci	r29, 0x00	; 0
    1ad2:	0e 94 e7 05 	call	0xbce	; 0xbce <load>
    1ad6:	2b 01       	movw	r4, r22
    1ad8:	3c 01       	movw	r6, r24
    1ada:	66 24       	eor	r6, r6
    1adc:	77 24       	eor	r7, r7
    1ade:	c8 57       	subi	r28, 0x78	; 120
    1ae0:	df 4f       	sbci	r29, 0xFF	; 255
    1ae2:	98 81       	ld	r25, Y
    1ae4:	c8 58       	subi	r28, 0x88	; 136
    1ae6:	d0 40       	sbci	r29, 0x00	; 0
    1ae8:	9f 93       	push	r25
    1aea:	c9 57       	subi	r28, 0x79	; 121
    1aec:	df 4f       	sbci	r29, 0xFF	; 255
    1aee:	a8 81       	ld	r26, Y
    1af0:	c7 58       	subi	r28, 0x87	; 135
    1af2:	d0 40       	sbci	r29, 0x00	; 0
    1af4:	af 93       	push	r26
    1af6:	ca 57       	subi	r28, 0x7A	; 122
    1af8:	df 4f       	sbci	r29, 0xFF	; 255
    1afa:	b8 81       	ld	r27, Y
    1afc:	c6 58       	subi	r28, 0x86	; 134
    1afe:	d0 40       	sbci	r29, 0x00	; 0
    1b00:	bf 93       	push	r27
    1b02:	cb 57       	subi	r28, 0x7B	; 123
    1b04:	df 4f       	sbci	r29, 0xFF	; 255
    1b06:	e8 81       	ld	r30, Y
    1b08:	c5 58       	subi	r28, 0x85	; 133
    1b0a:	d0 40       	sbci	r29, 0x00	; 0
    1b0c:	ef 93       	push	r30
    1b0e:	7f 92       	push	r7
    1b10:	6f 92       	push	r6
    1b12:	5f 92       	push	r5
    1b14:	4f 92       	push	r4
    1b16:	a5 e9       	ldi	r26, 0x95	; 149
    1b18:	b3 e0       	ldi	r27, 0x03	; 3
    1b1a:	bf 93       	push	r27
    1b1c:	af 93       	push	r26
    1b1e:	0e 94 41 1b 	call	0x3682	; 0x3682 <printf>
    1b22:	cf 57       	subi	r28, 0x7F	; 127
    1b24:	df 4f       	sbci	r29, 0xFF	; 255
    1b26:	88 81       	ld	r24, Y
    1b28:	99 81       	ldd	r25, Y+1	; 0x01
    1b2a:	aa 81       	ldd	r26, Y+2	; 0x02
    1b2c:	bb 81       	ldd	r27, Y+3	; 0x03
    1b2e:	c1 58       	subi	r28, 0x81	; 129
    1b30:	d0 40       	sbci	r29, 0x00	; 0
    1b32:	04 96       	adiw	r24, 0x04	; 4
    1b34:	a1 1d       	adc	r26, r1
    1b36:	b1 1d       	adc	r27, r1
    1b38:	cf 57       	subi	r28, 0x7F	; 127
    1b3a:	df 4f       	sbci	r29, 0xFF	; 255
    1b3c:	88 83       	st	Y, r24
    1b3e:	99 83       	std	Y+1, r25	; 0x01
    1b40:	aa 83       	std	Y+2, r26	; 0x02
    1b42:	bb 83       	std	Y+3, r27	; 0x03
    1b44:	c1 58       	subi	r28, 0x81	; 129
    1b46:	d0 40       	sbci	r29, 0x00	; 0
    1b48:	0f b6       	in	r0, 0x3f	; 63
    1b4a:	f8 94       	cli
    1b4c:	de bf       	out	0x3e, r29	; 62
    1b4e:	0f be       	out	0x3f, r0	; 63
    1b50:	cd bf       	out	0x3d, r28	; 61
    1b52:	cb 57       	subi	r28, 0x7B	; 123
    1b54:	df 4f       	sbci	r29, 0xFF	; 255
    1b56:	48 82       	st	Y, r4
    1b58:	59 82       	std	Y+1, r5	; 0x01
    1b5a:	6a 82       	std	Y+2, r6	; 0x02
    1b5c:	7b 82       	std	Y+3, r7	; 0x03
    1b5e:	c5 58       	subi	r28, 0x85	; 133
    1b60:	d0 40       	sbci	r29, 0x00	; 0
    1b62:	c3 57       	subi	r28, 0x73	; 115
    1b64:	df 4f       	sbci	r29, 0xFF	; 255
    1b66:	c8 82       	st	Y, r12
    1b68:	d9 82       	std	Y+1, r13	; 0x01
    1b6a:	ea 82       	std	Y+2, r14	; 0x02
    1b6c:	fb 82       	std	Y+3, r15	; 0x03
    1b6e:	cd 58       	subi	r28, 0x8D	; 141
    1b70:	d0 40       	sbci	r29, 0x00	; 0
    1b72:	7c ce       	rjmp	.-776    	; 0x186c <stack_eval+0x61a>
    1b74:	c5 01       	movw	r24, r10
    1b76:	b4 01       	movw	r22, r8
    1b78:	0e 94 e7 05 	call	0xbce	; 0xbce <load>
    1b7c:	4b 01       	movw	r8, r22
    1b7e:	5c 01       	movw	r10, r24
    1b80:	75 ce       	rjmp	.-790    	; 0x186c <stack_eval+0x61a>
    1b82:	f4 01       	movw	r30, r8
    1b84:	ff 50       	subi	r31, 0x0F	; 15
    1b86:	80 80       	ld	r8, Z
    1b88:	91 2c       	mov	r9, r1
    1b8a:	a1 2c       	mov	r10, r1
    1b8c:	b1 2c       	mov	r11, r1
    1b8e:	6e ce       	rjmp	.-804    	; 0x186c <stack_eval+0x61a>
    1b90:	cf 57       	subi	r28, 0x7F	; 127
    1b92:	df 4f       	sbci	r29, 0xFF	; 255
    1b94:	c8 80       	ld	r12, Y
    1b96:	d9 80       	ldd	r13, Y+1	; 0x01
    1b98:	ea 80       	ldd	r14, Y+2	; 0x02
    1b9a:	fb 80       	ldd	r15, Y+3	; 0x03
    1b9c:	c1 58       	subi	r28, 0x81	; 129
    1b9e:	d0 40       	sbci	r29, 0x00	; 0
    1ba0:	c7 01       	movw	r24, r14
    1ba2:	b6 01       	movw	r22, r12
    1ba4:	0e 94 e7 05 	call	0xbce	; 0xbce <load>
    1ba8:	34 e0       	ldi	r19, 0x04	; 4
    1baa:	c3 0e       	add	r12, r19
    1bac:	d1 1c       	adc	r13, r1
    1bae:	e1 1c       	adc	r14, r1
    1bb0:	f1 1c       	adc	r15, r1
    1bb2:	cf 57       	subi	r28, 0x7F	; 127
    1bb4:	df 4f       	sbci	r29, 0xFF	; 255
    1bb6:	c8 82       	st	Y, r12
    1bb8:	d9 82       	std	Y+1, r13	; 0x01
    1bba:	ea 82       	std	Y+2, r14	; 0x02
    1bbc:	fb 82       	std	Y+3, r15	; 0x03
    1bbe:	c1 58       	subi	r28, 0x81	; 129
    1bc0:	d0 40       	sbci	r29, 0x00	; 0
    1bc2:	61 15       	cp	r22, r1
    1bc4:	48 e0       	ldi	r20, 0x08	; 8
    1bc6:	74 07       	cpc	r23, r20
    1bc8:	81 05       	cpc	r24, r1
    1bca:	91 05       	cpc	r25, r1
    1bcc:	08 f0       	brcs	.+2      	; 0x1bd0 <stack_eval+0x97e>
    1bce:	4e ce       	rjmp	.-868    	; 0x186c <stack_eval+0x61a>
    1bd0:	54 c0       	rjmp	.+168    	; 0x1c7a <stack_eval+0xa28>
    1bd2:	cf 57       	subi	r28, 0x7F	; 127
    1bd4:	df 4f       	sbci	r29, 0xFF	; 255
    1bd6:	c8 80       	ld	r12, Y
    1bd8:	d9 80       	ldd	r13, Y+1	; 0x01
    1bda:	ea 80       	ldd	r14, Y+2	; 0x02
    1bdc:	fb 80       	ldd	r15, Y+3	; 0x03
    1bde:	c1 58       	subi	r28, 0x81	; 129
    1be0:	d0 40       	sbci	r29, 0x00	; 0
    1be2:	c7 01       	movw	r24, r14
    1be4:	b6 01       	movw	r22, r12
    1be6:	0e 94 e7 05 	call	0xbce	; 0xbce <load>
    1bea:	54 e0       	ldi	r21, 0x04	; 4
    1bec:	c5 0e       	add	r12, r21
    1bee:	d1 1c       	adc	r13, r1
    1bf0:	e1 1c       	adc	r14, r1
    1bf2:	f1 1c       	adc	r15, r1
    1bf4:	cf 57       	subi	r28, 0x7F	; 127
    1bf6:	df 4f       	sbci	r29, 0xFF	; 255
    1bf8:	c8 82       	st	Y, r12
    1bfa:	d9 82       	std	Y+1, r13	; 0x01
    1bfc:	ea 82       	std	Y+2, r14	; 0x02
    1bfe:	fb 82       	std	Y+3, r15	; 0x03
    1c00:	c1 58       	subi	r28, 0x81	; 129
    1c02:	d0 40       	sbci	r29, 0x00	; 0
    1c04:	61 15       	cp	r22, r1
    1c06:	a8 e0       	ldi	r26, 0x08	; 8
    1c08:	7a 07       	cpc	r23, r26
    1c0a:	81 05       	cpc	r24, r1
    1c0c:	91 05       	cpc	r25, r1
    1c0e:	08 f0       	brcs	.+2      	; 0x1c12 <stack_eval+0x9c0>
    1c10:	2d ce       	rjmp	.-934    	; 0x186c <stack_eval+0x61a>
    1c12:	fb 01       	movw	r30, r22
    1c14:	ff 50       	subi	r31, 0x0F	; 15
    1c16:	80 82       	st	Z, r8
    1c18:	29 ce       	rjmp	.-942    	; 0x186c <stack_eval+0x61a>
    1c1a:	cf 57       	subi	r28, 0x7F	; 127
    1c1c:	df 4f       	sbci	r29, 0xFF	; 255
    1c1e:	c8 80       	ld	r12, Y
    1c20:	d9 80       	ldd	r13, Y+1	; 0x01
    1c22:	ea 80       	ldd	r14, Y+2	; 0x02
    1c24:	fb 80       	ldd	r15, Y+3	; 0x03
    1c26:	c1 58       	subi	r28, 0x81	; 129
    1c28:	d0 40       	sbci	r29, 0x00	; 0
    1c2a:	c7 01       	movw	r24, r14
    1c2c:	b6 01       	movw	r22, r12
    1c2e:	0e 94 e7 05 	call	0xbce	; 0xbce <load>
    1c32:	4b 01       	movw	r8, r22
    1c34:	5c 01       	movw	r10, r24
    1c36:	b4 e0       	ldi	r27, 0x04	; 4
    1c38:	cb 0e       	add	r12, r27
    1c3a:	d1 1c       	adc	r13, r1
    1c3c:	e1 1c       	adc	r14, r1
    1c3e:	f1 1c       	adc	r15, r1
    1c40:	cf 57       	subi	r28, 0x7F	; 127
    1c42:	df 4f       	sbci	r29, 0xFF	; 255
    1c44:	c8 82       	st	Y, r12
    1c46:	d9 82       	std	Y+1, r13	; 0x01
    1c48:	ea 82       	std	Y+2, r14	; 0x02
    1c4a:	fb 82       	std	Y+3, r15	; 0x03
    1c4c:	c1 58       	subi	r28, 0x81	; 129
    1c4e:	d0 40       	sbci	r29, 0x00	; 0
    1c50:	0d ce       	rjmp	.-998    	; 0x186c <stack_eval+0x61a>
    1c52:	cf 57       	subi	r28, 0x7F	; 127
    1c54:	df 4f       	sbci	r29, 0xFF	; 255
    1c56:	68 81       	ld	r22, Y
    1c58:	79 81       	ldd	r23, Y+1	; 0x01
    1c5a:	8a 81       	ldd	r24, Y+2	; 0x02
    1c5c:	9b 81       	ldd	r25, Y+3	; 0x03
    1c5e:	c1 58       	subi	r28, 0x81	; 129
    1c60:	d0 40       	sbci	r29, 0x00	; 0
    1c62:	64 50       	subi	r22, 0x04	; 4
    1c64:	71 09       	sbc	r23, r1
    1c66:	81 09       	sbc	r24, r1
    1c68:	91 09       	sbc	r25, r1
    1c6a:	cf 57       	subi	r28, 0x7F	; 127
    1c6c:	df 4f       	sbci	r29, 0xFF	; 255
    1c6e:	68 83       	st	Y, r22
    1c70:	79 83       	std	Y+1, r23	; 0x01
    1c72:	8a 83       	std	Y+2, r24	; 0x02
    1c74:	9b 83       	std	Y+3, r25	; 0x03
    1c76:	c1 58       	subi	r28, 0x81	; 129
    1c78:	d0 40       	sbci	r29, 0x00	; 0
    1c7a:	a5 01       	movw	r20, r10
    1c7c:	94 01       	movw	r18, r8
    1c7e:	0e 94 46 06 	call	0xc8c	; 0xc8c <store>
    1c82:	f4 cd       	rjmp	.-1048   	; 0x186c <stack_eval+0x61a>
    1c84:	fe 01       	movw	r30, r28
    1c86:	ef 57       	subi	r30, 0x7F	; 127
    1c88:	ff 4f       	sbci	r31, 0xFF	; 255
    1c8a:	7f 01       	movw	r14, r30
    1c8c:	c7 57       	subi	r28, 0x77	; 119
    1c8e:	df 4f       	sbci	r29, 0xFF	; 255
    1c90:	08 81       	ld	r16, Y
    1c92:	19 81       	ldd	r17, Y+1	; 0x01
    1c94:	2a 81       	ldd	r18, Y+2	; 0x02
    1c96:	3b 81       	ldd	r19, Y+3	; 0x03
    1c98:	c9 58       	subi	r28, 0x89	; 137
    1c9a:	d0 40       	sbci	r29, 0x00	; 0
    1c9c:	b3 01       	movw	r22, r6
    1c9e:	a2 01       	movw	r20, r4
    1ca0:	ce 56       	subi	r28, 0x6E	; 110
    1ca2:	df 4f       	sbci	r29, 0xFF	; 255
    1ca4:	88 81       	ld	r24, Y
    1ca6:	99 81       	ldd	r25, Y+1	; 0x01
    1ca8:	c2 59       	subi	r28, 0x92	; 146
    1caa:	d0 40       	sbci	r29, 0x00	; 0
    1cac:	0e 94 67 06 	call	0xcce	; 0xcce <externalCall>
    1cb0:	4b 01       	movw	r8, r22
    1cb2:	5c 01       	movw	r10, r24
    1cb4:	db cd       	rjmp	.-1098   	; 0x186c <stack_eval+0x61a>
    1cb6:	cf 57       	subi	r28, 0x7F	; 127
    1cb8:	df 4f       	sbci	r29, 0xFF	; 255
    1cba:	c8 80       	ld	r12, Y
    1cbc:	d9 80       	ldd	r13, Y+1	; 0x01
    1cbe:	ea 80       	ldd	r14, Y+2	; 0x02
    1cc0:	fb 80       	ldd	r15, Y+3	; 0x03
    1cc2:	c1 58       	subi	r28, 0x81	; 129
    1cc4:	d0 40       	sbci	r29, 0x00	; 0
    1cc6:	c7 01       	movw	r24, r14
    1cc8:	b6 01       	movw	r22, r12
    1cca:	0e 94 e7 05 	call	0xbce	; 0xbce <load>
    1cce:	b4 e0       	ldi	r27, 0x04	; 4
    1cd0:	cb 0e       	add	r12, r27
    1cd2:	d1 1c       	adc	r13, r1
    1cd4:	e1 1c       	adc	r14, r1
    1cd6:	f1 1c       	adc	r15, r1
    1cd8:	cf 57       	subi	r28, 0x7F	; 127
    1cda:	df 4f       	sbci	r29, 0xFF	; 255
    1cdc:	c8 82       	st	Y, r12
    1cde:	d9 82       	std	Y+1, r13	; 0x01
    1ce0:	ea 82       	std	Y+2, r14	; 0x02
    1ce2:	fb 82       	std	Y+3, r15	; 0x03
    1ce4:	c1 58       	subi	r28, 0x81	; 129
    1ce6:	d0 40       	sbci	r29, 0x00	; 0
    1ce8:	ca 56       	subi	r28, 0x6A	; 106
    1cea:	df 4f       	sbci	r29, 0xFF	; 255
    1cec:	e8 81       	ld	r30, Y
    1cee:	f9 81       	ldd	r31, Y+1	; 0x01
    1cf0:	c6 59       	subi	r28, 0x96	; 150
    1cf2:	d0 40       	sbci	r29, 0x00	; 0
    1cf4:	72 97       	sbiw	r30, 0x12	; 18
    1cf6:	e0 31       	cpi	r30, 0x10	; 16
    1cf8:	f1 05       	cpc	r31, r1
    1cfa:	a8 f1       	brcs	.+106    	; 0x1d66 <stack_eval+0xb14>
    1cfc:	c8 57       	subi	r28, 0x78	; 120
    1cfe:	df 4f       	sbci	r29, 0xFF	; 255
    1d00:	38 81       	ld	r19, Y
    1d02:	c8 58       	subi	r28, 0x88	; 136
    1d04:	d0 40       	sbci	r29, 0x00	; 0
    1d06:	3f 93       	push	r19
    1d08:	c9 57       	subi	r28, 0x79	; 121
    1d0a:	df 4f       	sbci	r29, 0xFF	; 255
    1d0c:	48 81       	ld	r20, Y
    1d0e:	c7 58       	subi	r28, 0x87	; 135
    1d10:	d0 40       	sbci	r29, 0x00	; 0
    1d12:	4f 93       	push	r20
    1d14:	ca 57       	subi	r28, 0x7A	; 122
    1d16:	df 4f       	sbci	r29, 0xFF	; 255
    1d18:	58 81       	ld	r21, Y
    1d1a:	c6 58       	subi	r28, 0x86	; 134
    1d1c:	d0 40       	sbci	r29, 0x00	; 0
    1d1e:	5f 93       	push	r21
    1d20:	cb 57       	subi	r28, 0x7B	; 123
    1d22:	df 4f       	sbci	r29, 0xFF	; 255
    1d24:	88 81       	ld	r24, Y
    1d26:	c5 58       	subi	r28, 0x85	; 133
    1d28:	d0 40       	sbci	r29, 0x00	; 0
    1d2a:	8f 93       	push	r24
    1d2c:	1f 92       	push	r1
    1d2e:	cf 56       	subi	r28, 0x6F	; 111
    1d30:	df 4f       	sbci	r29, 0xFF	; 255
    1d32:	98 81       	ld	r25, Y
    1d34:	c1 59       	subi	r28, 0x91	; 145
    1d36:	d0 40       	sbci	r29, 0x00	; 0
    1d38:	9f 93       	push	r25
    1d3a:	88 ea       	ldi	r24, 0xA8	; 168
    1d3c:	93 e0       	ldi	r25, 0x03	; 3
    1d3e:	9f 93       	push	r25
    1d40:	8f 93       	push	r24
    1d42:	0e 94 41 1b 	call	0x3682	; 0x3682 <printf>
    1d46:	ce 56       	subi	r28, 0x6E	; 110
    1d48:	df 4f       	sbci	r29, 0xFF	; 255
    1d4a:	88 81       	ld	r24, Y
    1d4c:	99 81       	ldd	r25, Y+1	; 0x01
    1d4e:	c2 59       	subi	r28, 0x92	; 146
    1d50:	d0 40       	sbci	r29, 0x00	; 0
    1d52:	0e 94 a7 19 	call	0x334e	; 0x334e <free>
    1d56:	0f b6       	in	r0, 0x3f	; 63
    1d58:	f8 94       	cli
    1d5a:	de bf       	out	0x3e, r29	; 62
    1d5c:	0f be       	out	0x3f, r0	; 63
    1d5e:	cd bf       	out	0x3d, r28	; 61
    1d60:	8e ef       	ldi	r24, 0xFE	; 254
    1d62:	9f ef       	ldi	r25, 0xFF	; 255
    1d64:	89 c0       	rjmp	.+274    	; 0x1e78 <stack_eval+0xc26>
    1d66:	e5 59       	subi	r30, 0x95	; 149
    1d68:	ff 4f       	sbci	r31, 0xFF	; 255
    1d6a:	0c 94 b1 18 	jmp	0x3162	; 0x3162 <__tablejump2__>
    1d6e:	86 2a       	or	r8, r22
    1d70:	97 2a       	or	r9, r23
    1d72:	a8 2a       	or	r10, r24
    1d74:	b9 2a       	or	r11, r25
    1d76:	7a cd       	rjmp	.-1292   	; 0x186c <stack_eval+0x61a>
    1d78:	86 26       	eor	r8, r22
    1d7a:	97 26       	eor	r9, r23
    1d7c:	a8 26       	eor	r10, r24
    1d7e:	b9 26       	eor	r11, r25
    1d80:	75 cd       	rjmp	.-1302   	; 0x186c <stack_eval+0x61a>
    1d82:	86 22       	and	r8, r22
    1d84:	97 22       	and	r9, r23
    1d86:	a8 22       	and	r10, r24
    1d88:	b9 22       	and	r11, r25
    1d8a:	70 cd       	rjmp	.-1312   	; 0x186c <stack_eval+0x61a>
    1d8c:	21 e0       	ldi	r18, 0x01	; 1
    1d8e:	68 15       	cp	r22, r8
    1d90:	79 05       	cpc	r23, r9
    1d92:	8a 05       	cpc	r24, r10
    1d94:	9b 05       	cpc	r25, r11
    1d96:	19 f5       	brne	.+70     	; 0x1dde <stack_eval+0xb8c>
    1d98:	23 c0       	rjmp	.+70     	; 0x1de0 <stack_eval+0xb8e>
    1d9a:	21 e0       	ldi	r18, 0x01	; 1
    1d9c:	68 15       	cp	r22, r8
    1d9e:	79 05       	cpc	r23, r9
    1da0:	8a 05       	cpc	r24, r10
    1da2:	9b 05       	cpc	r25, r11
    1da4:	e9 f4       	brne	.+58     	; 0x1de0 <stack_eval+0xb8e>
    1da6:	1b c0       	rjmp	.+54     	; 0x1dde <stack_eval+0xb8c>
    1da8:	21 e0       	ldi	r18, 0x01	; 1
    1daa:	68 15       	cp	r22, r8
    1dac:	79 05       	cpc	r23, r9
    1dae:	8a 05       	cpc	r24, r10
    1db0:	9b 05       	cpc	r25, r11
    1db2:	b4 f0       	brlt	.+44     	; 0x1de0 <stack_eval+0xb8e>
    1db4:	14 c0       	rjmp	.+40     	; 0x1dde <stack_eval+0xb8c>
    1db6:	21 e0       	ldi	r18, 0x01	; 1
    1db8:	86 16       	cp	r8, r22
    1dba:	97 06       	cpc	r9, r23
    1dbc:	a8 06       	cpc	r10, r24
    1dbe:	b9 06       	cpc	r11, r25
    1dc0:	7c f0       	brlt	.+30     	; 0x1de0 <stack_eval+0xb8e>
    1dc2:	0d c0       	rjmp	.+26     	; 0x1dde <stack_eval+0xb8c>
    1dc4:	21 e0       	ldi	r18, 0x01	; 1
    1dc6:	86 16       	cp	r8, r22
    1dc8:	97 06       	cpc	r9, r23
    1dca:	a8 06       	cpc	r10, r24
    1dcc:	b9 06       	cpc	r11, r25
    1dce:	44 f4       	brge	.+16     	; 0x1de0 <stack_eval+0xb8e>
    1dd0:	06 c0       	rjmp	.+12     	; 0x1dde <stack_eval+0xb8c>
    1dd2:	21 e0       	ldi	r18, 0x01	; 1
    1dd4:	68 15       	cp	r22, r8
    1dd6:	79 05       	cpc	r23, r9
    1dd8:	8a 05       	cpc	r24, r10
    1dda:	9b 05       	cpc	r25, r11
    1ddc:	0c f4       	brge	.+2      	; 0x1de0 <stack_eval+0xb8e>
    1dde:	20 e0       	ldi	r18, 0x00	; 0
    1de0:	82 2e       	mov	r8, r18
    1de2:	91 2c       	mov	r9, r1
    1de4:	a1 2c       	mov	r10, r1
    1de6:	b1 2c       	mov	r11, r1
    1de8:	41 cd       	rjmp	.-1406   	; 0x186c <stack_eval+0x61a>
    1dea:	9b 01       	movw	r18, r22
    1dec:	ac 01       	movw	r20, r24
    1dee:	04 c0       	rjmp	.+8      	; 0x1df8 <stack_eval+0xba6>
    1df0:	22 0f       	add	r18, r18
    1df2:	33 1f       	adc	r19, r19
    1df4:	44 1f       	adc	r20, r20
    1df6:	55 1f       	adc	r21, r21
    1df8:	8a 94       	dec	r8
    1dfa:	d2 f7       	brpl	.-12     	; 0x1df0 <stack_eval+0xb9e>
    1dfc:	49 01       	movw	r8, r18
    1dfe:	5a 01       	movw	r10, r20
    1e00:	35 cd       	rjmp	.-1430   	; 0x186c <stack_eval+0x61a>
    1e02:	9b 01       	movw	r18, r22
    1e04:	ac 01       	movw	r20, r24
    1e06:	04 c0       	rjmp	.+8      	; 0x1e10 <stack_eval+0xbbe>
    1e08:	55 95       	asr	r21
    1e0a:	47 95       	ror	r20
    1e0c:	37 95       	ror	r19
    1e0e:	27 95       	ror	r18
    1e10:	8a 94       	dec	r8
    1e12:	d2 f7       	brpl	.-12     	; 0x1e08 <stack_eval+0xbb6>
    1e14:	49 01       	movw	r8, r18
    1e16:	5a 01       	movw	r10, r20
    1e18:	29 cd       	rjmp	.-1454   	; 0x186c <stack_eval+0x61a>
    1e1a:	86 0e       	add	r8, r22
    1e1c:	97 1e       	adc	r9, r23
    1e1e:	a8 1e       	adc	r10, r24
    1e20:	b9 1e       	adc	r11, r25
    1e22:	24 cd       	rjmp	.-1464   	; 0x186c <stack_eval+0x61a>
    1e24:	9b 01       	movw	r18, r22
    1e26:	ac 01       	movw	r20, r24
    1e28:	28 19       	sub	r18, r8
    1e2a:	39 09       	sbc	r19, r9
    1e2c:	4a 09       	sbc	r20, r10
    1e2e:	5b 09       	sbc	r21, r11
    1e30:	49 01       	movw	r8, r18
    1e32:	5a 01       	movw	r10, r20
    1e34:	1b cd       	rjmp	.-1482   	; 0x186c <stack_eval+0x61a>
    1e36:	a5 01       	movw	r20, r10
    1e38:	94 01       	movw	r18, r8
    1e3a:	0e 94 82 18 	call	0x3104	; 0x3104 <__mulsi3>
    1e3e:	4b 01       	movw	r8, r22
    1e40:	5c 01       	movw	r10, r24
    1e42:	14 cd       	rjmp	.-1496   	; 0x186c <stack_eval+0x61a>
    1e44:	a5 01       	movw	r20, r10
    1e46:	94 01       	movw	r18, r8
    1e48:	0e 94 92 18 	call	0x3124	; 0x3124 <__divmodsi4>
    1e4c:	49 01       	movw	r8, r18
    1e4e:	5a 01       	movw	r10, r20
    1e50:	0d cd       	rjmp	.-1510   	; 0x186c <stack_eval+0x61a>
    1e52:	a5 01       	movw	r20, r10
    1e54:	94 01       	movw	r18, r8
    1e56:	0e 94 92 18 	call	0x3124	; 0x3124 <__divmodsi4>
    1e5a:	4b 01       	movw	r8, r22
    1e5c:	5c 01       	movw	r10, r24
    1e5e:	06 cd       	rjmp	.-1524   	; 0x186c <stack_eval+0x61a>
    1e60:	53 01       	movw	r10, r6
    1e62:	42 01       	movw	r8, r4
    1e64:	03 cd       	rjmp	.-1530   	; 0x186c <stack_eval+0x61a>
    1e66:	cb 57       	subi	r28, 0x7B	; 123
    1e68:	df 4f       	sbci	r29, 0xFF	; 255
    1e6a:	48 82       	st	Y, r4
    1e6c:	59 82       	std	Y+1, r5	; 0x01
    1e6e:	6a 82       	std	Y+2, r6	; 0x02
    1e70:	7b 82       	std	Y+3, r7	; 0x03
    1e72:	c5 58       	subi	r28, 0x85	; 133
    1e74:	d0 40       	sbci	r29, 0x00	; 0
    1e76:	fa cc       	rjmp	.-1548   	; 0x186c <stack_eval+0x61a>
    1e78:	c3 56       	subi	r28, 0x63	; 99
    1e7a:	df 4f       	sbci	r29, 0xFF	; 255
    1e7c:	0f b6       	in	r0, 0x3f	; 63
    1e7e:	f8 94       	cli
    1e80:	de bf       	out	0x3e, r29	; 62
    1e82:	0f be       	out	0x3f, r0	; 63
    1e84:	cd bf       	out	0x3d, r28	; 61
    1e86:	df 91       	pop	r29
    1e88:	cf 91       	pop	r28
    1e8a:	1f 91       	pop	r17
    1e8c:	0f 91       	pop	r16
    1e8e:	ff 90       	pop	r15
    1e90:	ef 90       	pop	r14
    1e92:	df 90       	pop	r13
    1e94:	cf 90       	pop	r12
    1e96:	bf 90       	pop	r11
    1e98:	af 90       	pop	r10
    1e9a:	9f 90       	pop	r9
    1e9c:	8f 90       	pop	r8
    1e9e:	7f 90       	pop	r7
    1ea0:	6f 90       	pop	r6
    1ea2:	5f 90       	pop	r5
    1ea4:	4f 90       	pop	r4
    1ea6:	3f 90       	pop	r3
    1ea8:	2f 90       	pop	r2
    1eaa:	08 95       	ret

00001eac <cipher_setup>:
    1eac:	ef 92       	push	r14
    1eae:	ff 92       	push	r15
    1eb0:	0f 93       	push	r16
    1eb2:	1f 93       	push	r17
    1eb4:	cf 93       	push	r28
    1eb6:	df 93       	push	r29
    1eb8:	cd b7       	in	r28, 0x3d	; 61
    1eba:	de b7       	in	r29, 0x3e	; 62
    1ebc:	ec 97       	sbiw	r28, 0x3c	; 60
    1ebe:	0f b6       	in	r0, 0x3f	; 63
    1ec0:	f8 94       	cli
    1ec2:	de bf       	out	0x3e, r29	; 62
    1ec4:	0f be       	out	0x3f, r0	; 63
    1ec6:	cd bf       	out	0x3d, r28	; 61
    1ec8:	fc 01       	movw	r30, r24
    1eca:	80 81       	ld	r24, Z
    1ecc:	91 81       	ldd	r25, Z+1	; 0x01
    1ece:	90 93 5d 08 	sts	0x085D, r25
    1ed2:	80 93 5c 08 	sts	0x085C, r24
    1ed6:	86 81       	ldd	r24, Z+6	; 0x06
    1ed8:	97 81       	ldd	r25, Z+7	; 0x07
    1eda:	9e 83       	std	Y+6, r25	; 0x06
    1edc:	8d 83       	std	Y+5, r24	; 0x05
    1ede:	84 81       	ldd	r24, Z+4	; 0x04
    1ee0:	95 81       	ldd	r25, Z+5	; 0x05
    1ee2:	9c 83       	std	Y+4, r25	; 0x04
    1ee4:	8b 83       	std	Y+3, r24	; 0x03
    1ee6:	82 81       	ldd	r24, Z+2	; 0x02
    1ee8:	93 81       	ldd	r25, Z+3	; 0x03
    1eea:	9a 83       	std	Y+2, r25	; 0x02
    1eec:	89 83       	std	Y+1, r24	; 0x01
    1eee:	ce 01       	movw	r24, r28
    1ef0:	01 96       	adiw	r24, 0x01	; 1
    1ef2:	7c 01       	movw	r14, r24
    1ef4:	ec e5       	ldi	r30, 0x5C	; 92
    1ef6:	f8 e0       	ldi	r31, 0x08	; 8
    1ef8:	20 e0       	ldi	r18, 0x00	; 0
    1efa:	30 e0       	ldi	r19, 0x00	; 0
    1efc:	d7 01       	movw	r26, r14
    1efe:	8d 91       	ld	r24, X+
    1f00:	9d 91       	ld	r25, X+
    1f02:	7d 01       	movw	r14, r26
    1f04:	bf 01       	movw	r22, r30
    1f06:	98 27       	eor	r25, r24
    1f08:	89 27       	eor	r24, r25
    1f0a:	98 27       	eor	r25, r24
    1f0c:	01 91       	ld	r16, Z+
    1f0e:	11 91       	ld	r17, Z+
    1f10:	80 0f       	add	r24, r16
    1f12:	91 1f       	adc	r25, r17
    1f14:	82 27       	eor	r24, r18
    1f16:	93 27       	eor	r25, r19
    1f18:	15 96       	adiw	r26, 0x05	; 5
    1f1a:	9c 93       	st	X, r25
    1f1c:	8e 93       	st	-X, r24
    1f1e:	14 97       	sbiw	r26, 0x04	; 4
    1f20:	2f 5f       	subi	r18, 0xFF	; 255
    1f22:	3f 4f       	sbci	r19, 0xFF	; 255
    1f24:	db 01       	movw	r26, r22
    1f26:	11 96       	adiw	r26, 0x01	; 1
    1f28:	1c 91       	ld	r17, X
    1f2a:	11 97       	sbiw	r26, 0x01	; 1
    1f2c:	01 2f       	mov	r16, r17
    1f2e:	02 95       	swap	r16
    1f30:	00 0f       	add	r16, r16
    1f32:	00 7e       	andi	r16, 0xE0	; 224
    1f34:	6c 91       	ld	r22, X
    1f36:	76 2f       	mov	r23, r22
    1f38:	76 95       	lsr	r23
    1f3a:	76 95       	lsr	r23
    1f3c:	76 95       	lsr	r23
    1f3e:	40 2f       	mov	r20, r16
    1f40:	47 2b       	or	r20, r23
    1f42:	62 95       	swap	r22
    1f44:	66 0f       	add	r22, r22
    1f46:	60 7e       	andi	r22, 0xE0	; 224
    1f48:	16 95       	lsr	r17
    1f4a:	16 95       	lsr	r17
    1f4c:	16 95       	lsr	r17
    1f4e:	56 2f       	mov	r21, r22
    1f50:	51 2b       	or	r21, r17
    1f52:	84 27       	eor	r24, r20
    1f54:	95 27       	eor	r25, r21
    1f56:	91 83       	std	Z+1, r25	; 0x01
    1f58:	80 83       	st	Z, r24
    1f5a:	25 31       	cpi	r18, 0x15	; 21
    1f5c:	31 05       	cpc	r19, r1
    1f5e:	71 f6       	brne	.-100    	; 0x1efc <cipher_setup+0x50>
    1f60:	ec 96       	adiw	r28, 0x3c	; 60
    1f62:	0f b6       	in	r0, 0x3f	; 63
    1f64:	f8 94       	cli
    1f66:	de bf       	out	0x3e, r29	; 62
    1f68:	0f be       	out	0x3f, r0	; 63
    1f6a:	cd bf       	out	0x3d, r28	; 61
    1f6c:	df 91       	pop	r29
    1f6e:	cf 91       	pop	r28
    1f70:	1f 91       	pop	r17
    1f72:	0f 91       	pop	r16
    1f74:	ff 90       	pop	r15
    1f76:	ef 90       	pop	r14
    1f78:	08 95       	ret

00001f7a <cipher_e_xfrm>:
    1f7a:	cf 93       	push	r28
    1f7c:	df 93       	push	r29
    1f7e:	fb 01       	movw	r30, r22
    1f80:	dc 01       	movw	r26, r24
    1f82:	2d 91       	ld	r18, X+
    1f84:	3c 91       	ld	r19, X
    1f86:	11 97       	sbiw	r26, 0x01	; 1
    1f88:	31 83       	std	Z+1, r19	; 0x01
    1f8a:	20 83       	st	Z, r18
    1f8c:	12 96       	adiw	r26, 0x02	; 2
    1f8e:	8d 91       	ld	r24, X+
    1f90:	9c 91       	ld	r25, X
    1f92:	13 97       	sbiw	r26, 0x03	; 3
    1f94:	93 83       	std	Z+3, r25	; 0x03
    1f96:	82 83       	std	Z+2, r24	; 0x02
    1f98:	ac e5       	ldi	r26, 0x5C	; 92
    1f9a:	b8 e0       	ldi	r27, 0x08	; 8
    1f9c:	80 81       	ld	r24, Z
    1f9e:	91 81       	ldd	r25, Z+1	; 0x01
    1fa0:	23 81       	ldd	r18, Z+3	; 0x03
    1fa2:	72 2f       	mov	r23, r18
    1fa4:	77 0f       	add	r23, r23
    1fa6:	32 81       	ldd	r19, Z+2	; 0x02
    1fa8:	63 2f       	mov	r22, r19
    1faa:	66 1f       	adc	r22, r22
    1fac:	66 27       	eor	r22, r22
    1fae:	66 1f       	adc	r22, r22
    1fb0:	c7 2f       	mov	r28, r23
    1fb2:	c6 2b       	or	r28, r22
    1fb4:	33 0f       	add	r19, r19
    1fb6:	22 1f       	adc	r18, r18
    1fb8:	22 27       	eor	r18, r18
    1fba:	22 1f       	adc	r18, r18
    1fbc:	d3 2f       	mov	r29, r19
    1fbe:	d2 2b       	or	r29, r18
    1fc0:	be 01       	movw	r22, r28
    1fc2:	68 0f       	add	r22, r24
    1fc4:	79 1f       	adc	r23, r25
    1fc6:	73 83       	std	Z+3, r23	; 0x03
    1fc8:	62 83       	std	Z+2, r22	; 0x02
    1fca:	2d 91       	ld	r18, X+
    1fcc:	3d 91       	ld	r19, X+
    1fce:	26 27       	eor	r18, r22
    1fd0:	37 27       	eor	r19, r23
    1fd2:	33 83       	std	Z+3, r19	; 0x03
    1fd4:	22 83       	std	Z+2, r18	; 0x02
    1fd6:	79 2f       	mov	r23, r25
    1fd8:	72 95       	swap	r23
    1fda:	76 95       	lsr	r23
    1fdc:	76 95       	lsr	r23
    1fde:	73 70       	andi	r23, 0x03	; 3
    1fe0:	68 2f       	mov	r22, r24
    1fe2:	66 0f       	add	r22, r22
    1fe4:	66 0f       	add	r22, r22
    1fe6:	47 2f       	mov	r20, r23
    1fe8:	46 2b       	or	r20, r22
    1fea:	68 2f       	mov	r22, r24
    1fec:	62 95       	swap	r22
    1fee:	66 95       	lsr	r22
    1ff0:	66 95       	lsr	r22
    1ff2:	63 70       	andi	r22, 0x03	; 3
    1ff4:	89 2f       	mov	r24, r25
    1ff6:	88 0f       	add	r24, r24
    1ff8:	88 0f       	add	r24, r24
    1ffa:	56 2f       	mov	r21, r22
    1ffc:	58 2b       	or	r21, r24
    1ffe:	24 27       	eor	r18, r20
    2000:	35 27       	eor	r19, r21
    2002:	31 83       	std	Z+1, r19	; 0x01
    2004:	20 83       	st	Z, r18
    2006:	88 e0       	ldi	r24, 0x08	; 8
    2008:	a8 38       	cpi	r26, 0x88	; 136
    200a:	b8 07       	cpc	r27, r24
    200c:	39 f6       	brne	.-114    	; 0x1f9c <cipher_e_xfrm+0x22>
    200e:	df 91       	pop	r29
    2010:	cf 91       	pop	r28
    2012:	08 95       	ret

00002014 <cipher_d_xfrm>:
    2014:	fc 01       	movw	r30, r24
    2016:	db 01       	movw	r26, r22
    2018:	12 96       	adiw	r26, 0x02	; 2
    201a:	8d 91       	ld	r24, X+
    201c:	9c 91       	ld	r25, X
    201e:	13 97       	sbiw	r26, 0x03	; 3
    2020:	93 83       	std	Z+3, r25	; 0x03
    2022:	82 83       	std	Z+2, r24	; 0x02
    2024:	8d 91       	ld	r24, X+
    2026:	9c 91       	ld	r25, X
    2028:	91 83       	std	Z+1, r25	; 0x01
    202a:	80 83       	st	Z, r24
    202c:	a8 e8       	ldi	r26, 0x88	; 136
    202e:	b8 e0       	ldi	r27, 0x08	; 8
    2030:	62 81       	ldd	r22, Z+2	; 0x02
    2032:	73 81       	ldd	r23, Z+3	; 0x03
    2034:	80 81       	ld	r24, Z
    2036:	91 81       	ldd	r25, Z+1	; 0x01
    2038:	86 27       	eor	r24, r22
    203a:	97 27       	eor	r25, r23
    203c:	39 2f       	mov	r19, r25
    203e:	32 95       	swap	r19
    2040:	33 0f       	add	r19, r19
    2042:	33 0f       	add	r19, r19
    2044:	30 7c       	andi	r19, 0xC0	; 192
    2046:	28 2f       	mov	r18, r24
    2048:	26 95       	lsr	r18
    204a:	26 95       	lsr	r18
    204c:	43 2f       	mov	r20, r19
    204e:	42 2b       	or	r20, r18
    2050:	28 2f       	mov	r18, r24
    2052:	22 95       	swap	r18
    2054:	22 0f       	add	r18, r18
    2056:	22 0f       	add	r18, r18
    2058:	20 7c       	andi	r18, 0xC0	; 192
    205a:	89 2f       	mov	r24, r25
    205c:	86 95       	lsr	r24
    205e:	86 95       	lsr	r24
    2060:	52 2f       	mov	r21, r18
    2062:	58 2b       	or	r21, r24
    2064:	51 83       	std	Z+1, r21	; 0x01
    2066:	40 83       	st	Z, r20
    2068:	3e 91       	ld	r19, -X
    206a:	2e 91       	ld	r18, -X
    206c:	26 27       	eor	r18, r22
    206e:	37 27       	eor	r19, r23
    2070:	24 1b       	sub	r18, r20
    2072:	35 0b       	sbc	r19, r21
    2074:	93 2f       	mov	r25, r19
    2076:	96 95       	lsr	r25
    2078:	82 2f       	mov	r24, r18
    207a:	87 95       	ror	r24
    207c:	88 27       	eor	r24, r24
    207e:	87 95       	ror	r24
    2080:	98 2b       	or	r25, r24
    2082:	82 2f       	mov	r24, r18
    2084:	86 95       	lsr	r24
    2086:	23 2f       	mov	r18, r19
    2088:	27 95       	ror	r18
    208a:	22 27       	eor	r18, r18
    208c:	27 95       	ror	r18
    208e:	82 2b       	or	r24, r18
    2090:	92 83       	std	Z+2, r25	; 0x02
    2092:	83 83       	std	Z+3, r24	; 0x03
    2094:	88 e0       	ldi	r24, 0x08	; 8
    2096:	ac 35       	cpi	r26, 0x5C	; 92
    2098:	b8 07       	cpc	r27, r24
    209a:	51 f6       	brne	.-108    	; 0x2030 <cipher_d_xfrm+0x1c>
    209c:	08 95       	ret

0000209e <cipher_padding_needed>:
    209e:	63 70       	andi	r22, 0x03	; 3
    20a0:	77 27       	eor	r23, r23
    20a2:	84 e0       	ldi	r24, 0x04	; 4
    20a4:	90 e0       	ldi	r25, 0x00	; 0
    20a6:	86 1b       	sub	r24, r22
    20a8:	97 0b       	sbc	r25, r23
    20aa:	08 95       	ret

000020ac <cipher_pad>:
    20ac:	cf 93       	push	r28
    20ae:	fa 01       	movw	r30, r20
    20b0:	e3 70       	andi	r30, 0x03	; 3
    20b2:	ff 27       	eor	r31, r31
    20b4:	24 e0       	ldi	r18, 0x04	; 4
    20b6:	30 e0       	ldi	r19, 0x00	; 0
    20b8:	2e 1b       	sub	r18, r30
    20ba:	3f 0b       	sbc	r19, r31
    20bc:	fb 01       	movw	r30, r22
    20be:	dc 01       	movw	r26, r24
    20c0:	64 0f       	add	r22, r20
    20c2:	75 1f       	adc	r23, r21
    20c4:	e6 17       	cp	r30, r22
    20c6:	f7 07       	cpc	r31, r23
    20c8:	19 f0       	breq	.+6      	; 0x20d0 <cipher_pad+0x24>
    20ca:	c1 91       	ld	r28, Z+
    20cc:	cd 93       	st	X+, r28
    20ce:	fa cf       	rjmp	.-12     	; 0x20c4 <cipher_pad+0x18>
    20d0:	48 0f       	add	r20, r24
    20d2:	59 1f       	adc	r21, r25
    20d4:	fa 01       	movw	r30, r20
    20d6:	21 93       	st	Z+, r18
    20d8:	cf 01       	movw	r24, r30
    20da:	84 1b       	sub	r24, r20
    20dc:	95 0b       	sbc	r25, r21
    20de:	82 17       	cp	r24, r18
    20e0:	93 07       	cpc	r25, r19
    20e2:	cc f3       	brlt	.-14     	; 0x20d6 <cipher_pad+0x2a>
    20e4:	cf 91       	pop	r28
    20e6:	08 95       	ret

000020e8 <cipher_length>:
    20e8:	86 0f       	add	r24, r22
    20ea:	97 1f       	adc	r25, r23
    20ec:	fc 01       	movw	r30, r24
    20ee:	31 97       	sbiw	r30, 0x01	; 1
    20f0:	20 81       	ld	r18, Z
    20f2:	30 e0       	ldi	r19, 0x00	; 0
    20f4:	fc 01       	movw	r30, r24
    20f6:	40 e0       	ldi	r20, 0x00	; 0
    20f8:	50 e0       	ldi	r21, 0x00	; 0
    20fa:	42 17       	cp	r20, r18
    20fc:	53 07       	cpc	r21, r19
    20fe:	40 f4       	brcc	.+16     	; 0x2110 <cipher_length+0x28>
    2100:	82 91       	ld	r24, -Z
    2102:	90 e0       	ldi	r25, 0x00	; 0
    2104:	82 17       	cp	r24, r18
    2106:	93 07       	cpc	r25, r19
    2108:	39 f4       	brne	.+14     	; 0x2118 <cipher_length+0x30>
    210a:	4f 5f       	subi	r20, 0xFF	; 255
    210c:	5f 4f       	sbci	r21, 0xFF	; 255
    210e:	f5 cf       	rjmp	.-22     	; 0x20fa <cipher_length+0x12>
    2110:	cb 01       	movw	r24, r22
    2112:	82 1b       	sub	r24, r18
    2114:	93 0b       	sbc	r25, r19
    2116:	08 95       	ret
    2118:	80 e0       	ldi	r24, 0x00	; 0
    211a:	90 e0       	ldi	r25, 0x00	; 0
    211c:	08 95       	ret

0000211e <cipher_encrypt_bulk>:
    211e:	8f 92       	push	r8
    2120:	9f 92       	push	r9
    2122:	af 92       	push	r10
    2124:	bf 92       	push	r11
    2126:	cf 92       	push	r12
    2128:	df 92       	push	r13
    212a:	ef 92       	push	r14
    212c:	ff 92       	push	r15
    212e:	0f 93       	push	r16
    2130:	1f 93       	push	r17
    2132:	cf 93       	push	r28
    2134:	df 93       	push	r29
    2136:	00 d0       	rcall	.+0      	; 0x2138 <cipher_encrypt_bulk+0x1a>
    2138:	00 d0       	rcall	.+0      	; 0x213a <cipher_encrypt_bulk+0x1c>
    213a:	00 d0       	rcall	.+0      	; 0x213c <cipher_encrypt_bulk+0x1e>
    213c:	cd b7       	in	r28, 0x3d	; 61
    213e:	de b7       	in	r29, 0x3e	; 62
    2140:	4c 01       	movw	r8, r24
    2142:	5b 01       	movw	r10, r22
    2144:	00 e0       	ldi	r16, 0x00	; 0
    2146:	10 e0       	ldi	r17, 0x00	; 0
    2148:	74 01       	movw	r14, r8
    214a:	e0 0e       	add	r14, r16
    214c:	f1 1e       	adc	r15, r17
    214e:	c5 01       	movw	r24, r10
    2150:	80 0f       	add	r24, r16
    2152:	91 1f       	adc	r25, r17
    2154:	98 01       	movw	r18, r16
    2156:	2c 5f       	subi	r18, 0xFC	; 252
    2158:	3f 4f       	sbci	r19, 0xFF	; 255
    215a:	69 01       	movw	r12, r18
    215c:	45 30       	cpi	r20, 0x05	; 5
    215e:	51 05       	cpc	r21, r1
    2160:	58 f0       	brcs	.+22     	; 0x2178 <cipher_encrypt_bulk+0x5a>
    2162:	b7 01       	movw	r22, r14
    2164:	4d 83       	std	Y+5, r20	; 0x05
    2166:	5e 83       	std	Y+6, r21	; 0x06
    2168:	0e 94 bd 0f 	call	0x1f7a	; 0x1f7a <cipher_e_xfrm>
    216c:	4d 81       	ldd	r20, Y+5	; 0x05
    216e:	5e 81       	ldd	r21, Y+6	; 0x06
    2170:	44 50       	subi	r20, 0x04	; 4
    2172:	51 09       	sbc	r21, r1
    2174:	86 01       	movw	r16, r12
    2176:	e8 cf       	rjmp	.-48     	; 0x2148 <cipher_encrypt_bulk+0x2a>
    2178:	24 e0       	ldi	r18, 0x04	; 4
    217a:	29 83       	std	Y+1, r18	; 0x01
    217c:	2a 83       	std	Y+2, r18	; 0x02
    217e:	2b 83       	std	Y+3, r18	; 0x03
    2180:	2c 83       	std	Y+4, r18	; 0x04
    2182:	44 30       	cpi	r20, 0x04	; 4
    2184:	51 05       	cpc	r21, r1
    2186:	31 f0       	breq	.+12     	; 0x2194 <cipher_encrypt_bulk+0x76>
    2188:	bc 01       	movw	r22, r24
    218a:	ce 01       	movw	r24, r28
    218c:	01 96       	adiw	r24, 0x01	; 1
    218e:	0e 94 56 10 	call	0x20ac	; 0x20ac <cipher_pad>
    2192:	07 c0       	rjmp	.+14     	; 0x21a2 <cipher_encrypt_bulk+0x84>
    2194:	b7 01       	movw	r22, r14
    2196:	0e 94 bd 0f 	call	0x1f7a	; 0x1f7a <cipher_e_xfrm>
    219a:	34 e0       	ldi	r19, 0x04	; 4
    219c:	e3 0e       	add	r14, r19
    219e:	f1 1c       	adc	r15, r1
    21a0:	86 01       	movw	r16, r12
    21a2:	b7 01       	movw	r22, r14
    21a4:	ce 01       	movw	r24, r28
    21a6:	01 96       	adiw	r24, 0x01	; 1
    21a8:	0e 94 bd 0f 	call	0x1f7a	; 0x1f7a <cipher_e_xfrm>
    21ac:	c8 01       	movw	r24, r16
    21ae:	04 96       	adiw	r24, 0x04	; 4
    21b0:	26 96       	adiw	r28, 0x06	; 6
    21b2:	0f b6       	in	r0, 0x3f	; 63
    21b4:	f8 94       	cli
    21b6:	de bf       	out	0x3e, r29	; 62
    21b8:	0f be       	out	0x3f, r0	; 63
    21ba:	cd bf       	out	0x3d, r28	; 61
    21bc:	df 91       	pop	r29
    21be:	cf 91       	pop	r28
    21c0:	1f 91       	pop	r17
    21c2:	0f 91       	pop	r16
    21c4:	ff 90       	pop	r15
    21c6:	ef 90       	pop	r14
    21c8:	df 90       	pop	r13
    21ca:	cf 90       	pop	r12
    21cc:	bf 90       	pop	r11
    21ce:	af 90       	pop	r10
    21d0:	9f 90       	pop	r9
    21d2:	8f 90       	pop	r8
    21d4:	08 95       	ret

000021d6 <cipher_decrypt_bulk>:
    21d6:	8f 92       	push	r8
    21d8:	9f 92       	push	r9
    21da:	af 92       	push	r10
    21dc:	bf 92       	push	r11
    21de:	cf 92       	push	r12
    21e0:	df 92       	push	r13
    21e2:	ef 92       	push	r14
    21e4:	ff 92       	push	r15
    21e6:	0f 93       	push	r16
    21e8:	1f 93       	push	r17
    21ea:	cf 93       	push	r28
    21ec:	df 93       	push	r29
    21ee:	00 d0       	rcall	.+0      	; 0x21f0 <cipher_decrypt_bulk+0x1a>
    21f0:	00 d0       	rcall	.+0      	; 0x21f2 <cipher_decrypt_bulk+0x1c>
    21f2:	cd b7       	in	r28, 0x3d	; 61
    21f4:	de b7       	in	r29, 0x3e	; 62
    21f6:	6c 01       	movw	r12, r24
    21f8:	4b 01       	movw	r8, r22
    21fa:	7a 01       	movw	r14, r20
    21fc:	00 e0       	ldi	r16, 0x00	; 0
    21fe:	10 e0       	ldi	r17, 0x00	; 0
    2200:	b4 01       	movw	r22, r8
    2202:	60 0f       	add	r22, r16
    2204:	71 1f       	adc	r23, r17
    2206:	56 01       	movw	r10, r12
    2208:	a0 0e       	add	r10, r16
    220a:	b1 1e       	adc	r11, r17
    220c:	95 e0       	ldi	r25, 0x05	; 5
    220e:	e9 16       	cp	r14, r25
    2210:	f1 04       	cpc	r15, r1
    2212:	48 f0       	brcs	.+18     	; 0x2226 <cipher_decrypt_bulk+0x50>
    2214:	c5 01       	movw	r24, r10
    2216:	0e 94 0a 10 	call	0x2014	; 0x2014 <cipher_d_xfrm>
    221a:	84 e0       	ldi	r24, 0x04	; 4
    221c:	e8 1a       	sub	r14, r24
    221e:	f1 08       	sbc	r15, r1
    2220:	0c 5f       	subi	r16, 0xFC	; 252
    2222:	1f 4f       	sbci	r17, 0xFF	; 255
    2224:	ed cf       	rjmp	.-38     	; 0x2200 <cipher_decrypt_bulk+0x2a>
    2226:	ce 01       	movw	r24, r28
    2228:	01 96       	adiw	r24, 0x01	; 1
    222a:	6c 01       	movw	r12, r24
    222c:	0e 94 0a 10 	call	0x2014	; 0x2014 <cipher_d_xfrm>
    2230:	8c 81       	ldd	r24, Y+4	; 0x04
    2232:	90 e0       	ldi	r25, 0x00	; 0
    2234:	84 30       	cpi	r24, 0x04	; 4
    2236:	91 05       	cpc	r25, r1
    2238:	b9 f0       	breq	.+46     	; 0x2268 <cipher_decrypt_bulk+0x92>
    223a:	f6 01       	movw	r30, r12
    223c:	d5 01       	movw	r26, r10
    223e:	24 e0       	ldi	r18, 0x04	; 4
    2240:	30 e0       	ldi	r19, 0x00	; 0
    2242:	28 1b       	sub	r18, r24
    2244:	39 0b       	sbc	r19, r25
    2246:	cf 01       	movw	r24, r30
    2248:	8c 19       	sub	r24, r12
    224a:	9d 09       	sbc	r25, r13
    224c:	82 17       	cp	r24, r18
    224e:	93 07       	cpc	r25, r19
    2250:	1c f4       	brge	.+6      	; 0x2258 <cipher_decrypt_bulk+0x82>
    2252:	81 91       	ld	r24, Z+
    2254:	8d 93       	st	X+, r24
    2256:	f7 cf       	rjmp	.-18     	; 0x2246 <cipher_decrypt_bulk+0x70>
    2258:	37 ff       	sbrs	r19, 7
    225a:	02 c0       	rjmp	.+4      	; 0x2260 <cipher_decrypt_bulk+0x8a>
    225c:	20 e0       	ldi	r18, 0x00	; 0
    225e:	30 e0       	ldi	r19, 0x00	; 0
    2260:	c8 01       	movw	r24, r16
    2262:	82 0f       	add	r24, r18
    2264:	93 1f       	adc	r25, r19
    2266:	01 c0       	rjmp	.+2      	; 0x226a <cipher_decrypt_bulk+0x94>
    2268:	c7 01       	movw	r24, r14
    226a:	0f 90       	pop	r0
    226c:	0f 90       	pop	r0
    226e:	0f 90       	pop	r0
    2270:	0f 90       	pop	r0
    2272:	df 91       	pop	r29
    2274:	cf 91       	pop	r28
    2276:	1f 91       	pop	r17
    2278:	0f 91       	pop	r16
    227a:	ff 90       	pop	r15
    227c:	ef 90       	pop	r14
    227e:	df 90       	pop	r13
    2280:	cf 90       	pop	r12
    2282:	bf 90       	pop	r11
    2284:	af 90       	pop	r10
    2286:	9f 90       	pop	r9
    2288:	8f 90       	pop	r8
    228a:	08 95       	ret

0000228c <spi_spiffing>:
    228c:	e0 91 80 01 	lds	r30, 0x0180
    2290:	f0 91 81 01 	lds	r31, 0x0181
    2294:	80 81       	ld	r24, Z
    2296:	99 27       	eor	r25, r25
    2298:	87 fd       	sbrc	r24, 7
    229a:	90 95       	com	r25
    229c:	89 2f       	mov	r24, r25
    229e:	88 1f       	adc	r24, r24
    22a0:	88 27       	eor	r24, r24
    22a2:	88 1f       	adc	r24, r24
    22a4:	90 e0       	ldi	r25, 0x00	; 0
    22a6:	08 95       	ret

000022a8 <spi_waitspif>:
    22a8:	0e 94 46 11 	call	0x228c	; 0x228c <spi_spiffing>
    22ac:	89 2b       	or	r24, r25
    22ae:	e1 f3       	breq	.-8      	; 0x22a8 <spi_waitspif>
    22b0:	08 95       	ret

000022b2 <spi_setup>:
    22b2:	e0 91 7c 01 	lds	r30, 0x017C
    22b6:	f0 91 7d 01 	lds	r31, 0x017D
    22ba:	80 ec       	ldi	r24, 0xC0	; 192
    22bc:	80 83       	st	Z, r24
    22be:	08 95       	ret

000022c0 <spi_disable_interrupts>:
    22c0:	e0 91 7c 01 	lds	r30, 0x017C
    22c4:	f0 91 7d 01 	lds	r31, 0x017D
    22c8:	80 e4       	ldi	r24, 0x40	; 64
    22ca:	80 83       	st	Z, r24
    22cc:	08 95       	ret

000022ce <spi_enable_interrupts>:
    22ce:	e0 91 7c 01 	lds	r30, 0x017C
    22d2:	f0 91 7d 01 	lds	r31, 0x017D
    22d6:	80 ec       	ldi	r24, 0xC0	; 192
    22d8:	80 83       	st	Z, r24
    22da:	08 95       	ret

000022dc <spi_write>:
    22dc:	ef 92       	push	r14
    22de:	ff 92       	push	r15
    22e0:	0f 93       	push	r16
    22e2:	1f 93       	push	r17
    22e4:	cf 93       	push	r28
    22e6:	df 93       	push	r29
    22e8:	eb 01       	movw	r28, r22
    22ea:	7c 01       	movw	r14, r24
    22ec:	03 ec       	ldi	r16, 0xC3	; 195
    22ee:	13 e0       	ldi	r17, 0x03	; 3
    22f0:	1c 16       	cp	r1, r28
    22f2:	1d 06       	cpc	r1, r29
    22f4:	dc f4       	brge	.+54     	; 0x232c <spi_write+0x50>
    22f6:	e0 91 7e 01 	lds	r30, 0x017E
    22fa:	f0 91 7f 01 	lds	r31, 0x017F
    22fe:	d7 01       	movw	r26, r14
    2300:	8d 91       	ld	r24, X+
    2302:	7d 01       	movw	r14, r26
    2304:	80 83       	st	Z, r24
    2306:	e0 91 7e 01 	lds	r30, 0x017E
    230a:	f0 91 7f 01 	lds	r31, 0x017F
    230e:	80 81       	ld	r24, Z
    2310:	88 23       	and	r24, r24
    2312:	51 f0       	breq	.+20     	; 0x2328 <spi_write+0x4c>
    2314:	1f 92       	push	r1
    2316:	8f 93       	push	r24
    2318:	1f 93       	push	r17
    231a:	0f 93       	push	r16
    231c:	0e 94 41 1b 	call	0x3682	; 0x3682 <printf>
    2320:	0f 90       	pop	r0
    2322:	0f 90       	pop	r0
    2324:	0f 90       	pop	r0
    2326:	0f 90       	pop	r0
    2328:	21 97       	sbiw	r28, 0x01	; 1
    232a:	e2 cf       	rjmp	.-60     	; 0x22f0 <spi_write+0x14>
    232c:	df 91       	pop	r29
    232e:	cf 91       	pop	r28
    2330:	1f 91       	pop	r17
    2332:	0f 91       	pop	r16
    2334:	ff 90       	pop	r15
    2336:	ef 90       	pop	r14
    2338:	08 95       	ret

0000233a <spi_read>:
    233a:	cf 92       	push	r12
    233c:	df 92       	push	r13
    233e:	ef 92       	push	r14
    2340:	ff 92       	push	r15
    2342:	0f 93       	push	r16
    2344:	1f 93       	push	r17
    2346:	cf 93       	push	r28
    2348:	df 93       	push	r29
    234a:	ec 01       	movw	r28, r24
    234c:	0e 94 46 11 	call	0x228c	; 0x228c <spi_spiffing>
    2350:	7c 01       	movw	r14, r24
    2352:	00 97       	sbiw	r24, 0x00	; 0
    2354:	79 f1       	breq	.+94     	; 0x23b4 <spi_read+0x7a>
    2356:	e0 91 7e 01 	lds	r30, 0x017E
    235a:	f0 91 7f 01 	lds	r31, 0x017F
    235e:	80 81       	ld	r24, Z
    2360:	88 83       	st	Y, r24
    2362:	0e 94 46 11 	call	0x228c	; 0x228c <spi_spiffing>
    2366:	89 2b       	or	r24, r25
    2368:	11 f1       	breq	.+68     	; 0x23ae <spi_read+0x74>
    236a:	e0 91 7e 01 	lds	r30, 0x017E
    236e:	f0 91 7f 01 	lds	r31, 0x017F
    2372:	00 81       	ld	r16, Z
    2374:	09 83       	std	Y+1, r16	; 0x01
    2376:	6e 01       	movw	r12, r28
    2378:	82 e0       	ldi	r24, 0x02	; 2
    237a:	c8 0e       	add	r12, r24
    237c:	d1 1c       	adc	r13, r1
    237e:	10 e0       	ldi	r17, 0x00	; 0
    2380:	0e 5f       	subi	r16, 0xFE	; 254
    2382:	1f 4f       	sbci	r17, 0xFF	; 255
    2384:	0c 0f       	add	r16, r28
    2386:	1d 1f       	adc	r17, r29
    2388:	76 01       	movw	r14, r12
    238a:	ec 1a       	sub	r14, r28
    238c:	fd 0a       	sbc	r15, r29
    238e:	0e 94 46 11 	call	0x228c	; 0x228c <spi_spiffing>
    2392:	89 2b       	or	r24, r25
    2394:	79 f0       	breq	.+30     	; 0x23b4 <spi_read+0x7a>
    2396:	0c 15       	cp	r16, r12
    2398:	1d 05       	cpc	r17, r13
    239a:	61 f0       	breq	.+24     	; 0x23b4 <spi_read+0x7a>
    239c:	e0 91 7e 01 	lds	r30, 0x017E
    23a0:	f0 91 7f 01 	lds	r31, 0x017F
    23a4:	80 81       	ld	r24, Z
    23a6:	f6 01       	movw	r30, r12
    23a8:	81 93       	st	Z+, r24
    23aa:	6f 01       	movw	r12, r30
    23ac:	ed cf       	rjmp	.-38     	; 0x2388 <spi_read+0x4e>
    23ae:	ee 24       	eor	r14, r14
    23b0:	e3 94       	inc	r14
    23b2:	f1 2c       	mov	r15, r1
    23b4:	c7 01       	movw	r24, r14
    23b6:	df 91       	pop	r29
    23b8:	cf 91       	pop	r28
    23ba:	1f 91       	pop	r17
    23bc:	0f 91       	pop	r16
    23be:	ff 90       	pop	r15
    23c0:	ef 90       	pop	r14
    23c2:	df 90       	pop	r13
    23c4:	cf 90       	pop	r12
    23c6:	08 95       	ret

000023c8 <timer_10ms>:
    23c8:	e0 91 74 01 	lds	r30, 0x0174
    23cc:	f0 91 75 01 	lds	r31, 0x0175
    23d0:	81 e0       	ldi	r24, 0x01	; 1
    23d2:	80 83       	st	Z, r24
    23d4:	e0 91 7a 01 	lds	r30, 0x017A
    23d8:	f0 91 7b 01 	lds	r31, 0x017B
    23dc:	80 83       	st	Z, r24
    23de:	08 95       	ret

000023e0 <timer_100ms>:
    23e0:	e0 91 74 01 	lds	r30, 0x0174
    23e4:	f0 91 75 01 	lds	r31, 0x0175
    23e8:	82 e0       	ldi	r24, 0x02	; 2
    23ea:	80 83       	st	Z, r24
    23ec:	e0 91 7a 01 	lds	r30, 0x017A
    23f0:	f0 91 7b 01 	lds	r31, 0x017B
    23f4:	81 e0       	ldi	r24, 0x01	; 1
    23f6:	80 83       	st	Z, r24
    23f8:	08 95       	ret

000023fa <timer_1000ms>:
    23fa:	e0 91 74 01 	lds	r30, 0x0174
    23fe:	f0 91 75 01 	lds	r31, 0x0175
    2402:	83 e0       	ldi	r24, 0x03	; 3
    2404:	80 83       	st	Z, r24
    2406:	e0 91 7a 01 	lds	r30, 0x017A
    240a:	f0 91 7b 01 	lds	r31, 0x017B
    240e:	81 e0       	ldi	r24, 0x01	; 1
    2410:	80 83       	st	Z, r24
    2412:	08 95       	ret

00002414 <debug_trace_toggle>:
    2414:	e0 91 6e 01 	lds	r30, 0x016E
    2418:	f0 91 6f 01 	lds	r31, 0x016F
    241c:	81 e0       	ldi	r24, 0x01	; 1
    241e:	80 83       	st	Z, r24
    2420:	08 95       	ret

00002422 <debug_setup_output>:
    2422:	e0 91 84 01 	lds	r30, 0x0184
    2426:	f0 91 85 01 	lds	r31, 0x0185
    242a:	8f ef       	ldi	r24, 0xFF	; 255
    242c:	80 83       	st	Z, r24
    242e:	8c e5       	ldi	r24, 0x5C	; 92
    2430:	91 e0       	ldi	r25, 0x01	; 1
    2432:	90 93 8d 09 	sts	0x098D, r25
    2436:	80 93 8c 09 	sts	0x098C, r24
    243a:	90 93 8f 09 	sts	0x098F, r25
    243e:	80 93 8e 09 	sts	0x098E, r24
    2442:	08 95       	ret

00002444 <panic>:
    2444:	8f ef       	ldi	r24, 0xFF	; 255
    2446:	8f bb       	out	0x1f, r24	; 31
    2448:	8f bb       	out	0x1f, r24	; 31
    244a:	8f bb       	out	0x1f, r24	; 31
    244c:	8f bb       	out	0x1f, r24	; 31
    244e:	8f bb       	out	0x1f, r24	; 31
    2450:	8f bb       	out	0x1f, r24	; 31
    2452:	8f bb       	out	0x1f, r24	; 31
    2454:	08 95       	ret

00002456 <portb_init>:
    2456:	e0 91 84 01 	lds	r30, 0x0184
    245a:	f0 91 85 01 	lds	r31, 0x0185
    245e:	8f ef       	ldi	r24, 0xFF	; 255
    2460:	80 83       	st	Z, r24
    2462:	08 95       	ret

00002464 <portb_charout>:
    2464:	98 2f       	mov	r25, r24
    2466:	92 95       	swap	r25
    2468:	9f 70       	andi	r25, 0x0F	; 15
    246a:	99 0f       	add	r25, r25
    246c:	99 0f       	add	r25, r25
    246e:	e0 91 82 01 	lds	r30, 0x0182
    2472:	f0 91 83 01 	lds	r31, 0x0183
    2476:	90 83       	st	Z, r25
    2478:	e0 91 82 01 	lds	r30, 0x0182
    247c:	f0 91 83 01 	lds	r31, 0x0183
    2480:	92 e0       	ldi	r25, 0x02	; 2
    2482:	90 83       	st	Z, r25
    2484:	8f 70       	andi	r24, 0x0F	; 15
    2486:	88 0f       	add	r24, r24
    2488:	88 0f       	add	r24, r24
    248a:	e0 91 82 01 	lds	r30, 0x0182
    248e:	f0 91 83 01 	lds	r31, 0x0183
    2492:	80 83       	st	Z, r24
    2494:	e0 91 82 01 	lds	r30, 0x0182
    2498:	f0 91 83 01 	lds	r31, 0x0183
    249c:	90 83       	st	Z, r25
    249e:	08 95       	ret

000024a0 <debug_putchar>:
    24a0:	0e 94 32 12 	call	0x2464	; 0x2464 <portb_charout>
    24a4:	80 e0       	ldi	r24, 0x00	; 0
    24a6:	90 e0       	ldi	r25, 0x00	; 0
    24a8:	08 95       	ret

000024aa <setstack>:
    24aa:	29 2f       	mov	r18, r25
    24ac:	33 27       	eor	r19, r19
    24ae:	99 27       	eor	r25, r25
    24b0:	2e bf       	out	0x3e, r18	; 62
    24b2:	8d bf       	out	0x3d, r24	; 61
    24b4:	08 95       	ret

000024b6 <sysexit>:
    24b6:	98 95       	break
    24b8:	08 95       	ret

000024ba <fix_init>:
    24ba:	ef 92       	push	r14
    24bc:	ff 92       	push	r15
    24be:	0f 93       	push	r16
    24c0:	1f 93       	push	r17
    24c2:	cf 93       	push	r28
    24c4:	df 93       	push	r29
    24c6:	ec 01       	movw	r28, r24
    24c8:	7b 01       	movw	r14, r22
    24ca:	8a 01       	movw	r16, r20
    24cc:	80 91 59 04 	lds	r24, 0x0459
    24d0:	90 91 5a 04 	lds	r25, 0x045A
    24d4:	89 2b       	or	r24, r25
    24d6:	41 f4       	brne	.+16     	; 0x24e8 <fix_init+0x2e>
    24d8:	80 e0       	ldi	r24, 0x00	; 0
    24da:	91 e0       	ldi	r25, 0x01	; 1
    24dc:	0e 94 0f 19 	call	0x321e	; 0x321e <malloc>
    24e0:	90 93 5a 04 	sts	0x045A, r25
    24e4:	80 93 59 04 	sts	0x0459, r24
    24e8:	80 91 5b 04 	lds	r24, 0x045B
    24ec:	90 91 5c 04 	lds	r25, 0x045C
    24f0:	89 2b       	or	r24, r25
    24f2:	41 f4       	brne	.+16     	; 0x2504 <fix_init+0x4a>
    24f4:	80 e0       	ldi	r24, 0x00	; 0
    24f6:	91 e0       	ldi	r25, 0x01	; 1
    24f8:	0e 94 0f 19 	call	0x321e	; 0x321e <malloc>
    24fc:	90 93 5c 04 	sts	0x045C, r25
    2500:	80 93 5b 04 	sts	0x045B, r24
    2504:	fb 82       	std	Y+3, r15	; 0x03
    2506:	ea 82       	std	Y+2, r14	; 0x02
    2508:	1d 83       	std	Y+5, r17	; 0x05
    250a:	0c 83       	std	Y+4, r16	; 0x04
    250c:	1f 82       	std	Y+7, r1	; 0x07
    250e:	1e 82       	std	Y+6, r1	; 0x06
    2510:	df 91       	pop	r29
    2512:	cf 91       	pop	r28
    2514:	1f 91       	pop	r17
    2516:	0f 91       	pop	r16
    2518:	ff 90       	pop	r15
    251a:	ef 90       	pop	r14
    251c:	08 95       	ret

0000251e <fix_setup>:
    251e:	e0 91 59 04 	lds	r30, 0x0459
    2522:	f0 91 5a 04 	lds	r31, 0x045A
    2526:	dc 01       	movw	r26, r24
    2528:	2d 91       	ld	r18, X+
    252a:	cd 01       	movw	r24, r26
    252c:	22 23       	and	r18, r18
    252e:	11 f0       	breq	.+4      	; 0x2534 <fix_setup+0x16>
    2530:	21 93       	st	Z+, r18
    2532:	f9 cf       	rjmp	.-14     	; 0x2526 <fix_setup+0x8>
    2534:	10 82       	st	Z, r1
    2536:	08 95       	ret

00002538 <fix_kv>:
    2538:	0f 93       	push	r16
    253a:	1f 93       	push	r17
    253c:	cf 93       	push	r28
    253e:	df 93       	push	r29
    2540:	fc 01       	movw	r30, r24
    2542:	46 81       	ldd	r20, Z+6	; 0x06
    2544:	57 81       	ldd	r21, Z+7	; 0x07
    2546:	80 e0       	ldi	r24, 0x00	; 0
    2548:	90 e0       	ldi	r25, 0x00	; 0
    254a:	20 e0       	ldi	r18, 0x00	; 0
    254c:	30 e0       	ldi	r19, 0x00	; 0
    254e:	24 17       	cp	r18, r20
    2550:	35 07       	cpc	r19, r21
    2552:	7c f5       	brge	.+94     	; 0x25b2 <fix_kv+0x7a>
    2554:	a2 81       	ldd	r26, Z+2	; 0x02
    2556:	b3 81       	ldd	r27, Z+3	; 0x03
    2558:	a8 0f       	add	r26, r24
    255a:	b9 1f       	adc	r27, r25
    255c:	ec 01       	movw	r28, r24
    255e:	26 96       	adiw	r28, 0x06	; 6
    2560:	0d 91       	ld	r16, X+
    2562:	1c 91       	ld	r17, X
    2564:	11 97       	sbiw	r26, 0x01	; 1
    2566:	06 17       	cp	r16, r22
    2568:	17 07       	cpc	r17, r23
    256a:	f9 f4       	brne	.+62     	; 0x25aa <fix_kv+0x72>
    256c:	12 96       	adiw	r26, 0x02	; 2
    256e:	2d 91       	ld	r18, X+
    2570:	3c 91       	ld	r19, X
    2572:	13 97       	sbiw	r26, 0x03	; 3
    2574:	af e5       	ldi	r26, 0x5F	; 95
    2576:	b4 e0       	ldi	r27, 0x04	; 4
    2578:	2f 55       	subi	r18, 0x5F	; 95
    257a:	34 40       	sbci	r19, 0x04	; 4
    257c:	a9 01       	movw	r20, r18
    257e:	4a 0f       	add	r20, r26
    2580:	5b 1f       	adc	r21, r27
    2582:	c2 81       	ldd	r28, Z+2	; 0x02
    2584:	d3 81       	ldd	r29, Z+3	; 0x03
    2586:	c8 0f       	add	r28, r24
    2588:	d9 1f       	adc	r29, r25
    258a:	6c 81       	ldd	r22, Y+4	; 0x04
    258c:	7d 81       	ldd	r23, Y+5	; 0x05
    258e:	64 17       	cp	r22, r20
    2590:	75 07       	cpc	r23, r21
    2592:	38 f0       	brcs	.+14     	; 0x25a2 <fix_kv+0x6a>
    2594:	c0 81       	ld	r28, Z
    2596:	d1 81       	ldd	r29, Z+1	; 0x01
    2598:	c4 0f       	add	r28, r20
    259a:	d5 1f       	adc	r29, r21
    259c:	48 81       	ld	r20, Y
    259e:	4d 93       	st	X+, r20
    25a0:	ed cf       	rjmp	.-38     	; 0x257c <fix_kv+0x44>
    25a2:	1c 92       	st	X, r1
    25a4:	8f e5       	ldi	r24, 0x5F	; 95
    25a6:	94 e0       	ldi	r25, 0x04	; 4
    25a8:	06 c0       	rjmp	.+12     	; 0x25b6 <fix_kv+0x7e>
    25aa:	2f 5f       	subi	r18, 0xFF	; 255
    25ac:	3f 4f       	sbci	r19, 0xFF	; 255
    25ae:	ce 01       	movw	r24, r28
    25b0:	ce cf       	rjmp	.-100    	; 0x254e <fix_kv+0x16>
    25b2:	80 e0       	ldi	r24, 0x00	; 0
    25b4:	90 e0       	ldi	r25, 0x00	; 0
    25b6:	df 91       	pop	r29
    25b8:	cf 91       	pop	r28
    25ba:	1f 91       	pop	r17
    25bc:	0f 91       	pop	r16
    25be:	08 95       	ret

000025c0 <fix_get_tag>:
    25c0:	cf 92       	push	r12
    25c2:	df 92       	push	r13
    25c4:	ef 92       	push	r14
    25c6:	ff 92       	push	r15
    25c8:	0f 93       	push	r16
    25ca:	1f 93       	push	r17
    25cc:	cf 93       	push	r28
    25ce:	df 93       	push	r29
    25d0:	cd b7       	in	r28, 0x3d	; 61
    25d2:	de b7       	in	r29, 0x3e	; 62
    25d4:	2a 97       	sbiw	r28, 0x0a	; 10
    25d6:	0f b6       	in	r0, 0x3f	; 63
    25d8:	f8 94       	cli
    25da:	de bf       	out	0x3e, r29	; 62
    25dc:	0f be       	out	0x3f, r0	; 63
    25de:	cd bf       	out	0x3d, r28	; 61
    25e0:	6b 01       	movw	r12, r22
    25e2:	9f 93       	push	r25
    25e4:	8f 93       	push	r24
    25e6:	88 ed       	ldi	r24, 0xD8	; 216
    25e8:	93 e0       	ldi	r25, 0x03	; 3
    25ea:	9f 93       	push	r25
    25ec:	8f 93       	push	r24
    25ee:	8e 01       	movw	r16, r28
    25f0:	0f 5f       	subi	r16, 0xFF	; 255
    25f2:	1f 4f       	sbci	r17, 0xFF	; 255
    25f4:	1f 93       	push	r17
    25f6:	0f 93       	push	r16
    25f8:	0e 94 82 1b 	call	0x3704	; 0x3704 <sprintf>
    25fc:	7c 01       	movw	r14, r24
    25fe:	b8 01       	movw	r22, r16
    2600:	80 91 59 04 	lds	r24, 0x0459
    2604:	90 91 5a 04 	lds	r25, 0x045A
    2608:	0e 94 27 1b 	call	0x364e	; 0x364e <strstr>
    260c:	0f 90       	pop	r0
    260e:	0f 90       	pop	r0
    2610:	0f 90       	pop	r0
    2612:	0f 90       	pop	r0
    2614:	0f 90       	pop	r0
    2616:	0f 90       	pop	r0
    2618:	00 97       	sbiw	r24, 0x00	; 0
    261a:	69 f0       	breq	.+26     	; 0x2636 <fix_get_tag+0x76>
    261c:	dc 01       	movw	r26, r24
    261e:	ae 0d       	add	r26, r14
    2620:	bf 1d       	adc	r27, r15
    2622:	f6 01       	movw	r30, r12
    2624:	8d 91       	ld	r24, X+
    2626:	8c 37       	cpi	r24, 0x7C	; 124
    2628:	11 f0       	breq	.+4      	; 0x262e <fix_get_tag+0x6e>
    262a:	81 93       	st	Z+, r24
    262c:	fb cf       	rjmp	.-10     	; 0x2624 <fix_get_tag+0x64>
    262e:	10 82       	st	Z, r1
    2630:	81 e0       	ldi	r24, 0x01	; 1
    2632:	90 e0       	ldi	r25, 0x00	; 0
    2634:	02 c0       	rjmp	.+4      	; 0x263a <fix_get_tag+0x7a>
    2636:	80 e0       	ldi	r24, 0x00	; 0
    2638:	90 e0       	ldi	r25, 0x00	; 0
    263a:	2a 96       	adiw	r28, 0x0a	; 10
    263c:	0f b6       	in	r0, 0x3f	; 63
    263e:	f8 94       	cli
    2640:	de bf       	out	0x3e, r29	; 62
    2642:	0f be       	out	0x3f, r0	; 63
    2644:	cd bf       	out	0x3d, r28	; 61
    2646:	df 91       	pop	r29
    2648:	cf 91       	pop	r28
    264a:	1f 91       	pop	r17
    264c:	0f 91       	pop	r16
    264e:	ff 90       	pop	r15
    2650:	ef 90       	pop	r14
    2652:	df 90       	pop	r13
    2654:	cf 90       	pop	r12
    2656:	08 95       	ret

00002658 <fix_final>:
    2658:	fc 01       	movw	r30, r24
    265a:	80 91 5b 04 	lds	r24, 0x045B
    265e:	90 91 5c 04 	lds	r25, 0x045C
    2662:	20 91 5d 04 	lds	r18, 0x045D
    2666:	30 91 5e 04 	lds	r19, 0x045E
    266a:	28 1b       	sub	r18, r24
    266c:	39 0b       	sbc	r19, r25
    266e:	31 83       	std	Z+1, r19	; 0x01
    2670:	20 83       	st	Z, r18
    2672:	08 95       	ret

00002674 <fix_add_type>:
    2674:	cf 93       	push	r28
    2676:	c8 2f       	mov	r28, r24
    2678:	6d ed       	ldi	r22, 0xDD	; 221
    267a:	73 e0       	ldi	r23, 0x03	; 3
    267c:	80 91 5b 04 	lds	r24, 0x045B
    2680:	90 91 5c 04 	lds	r25, 0x045C
    2684:	0e 94 20 1b 	call	0x3640	; 0x3640 <strcpy>
    2688:	e0 91 5b 04 	lds	r30, 0x045B
    268c:	f0 91 5c 04 	lds	r31, 0x045C
    2690:	c3 8b       	std	Z+19, r28	; 0x13
    2692:	80 91 5d 04 	lds	r24, 0x045D
    2696:	90 91 5e 04 	lds	r25, 0x045E
    269a:	45 96       	adiw	r24, 0x15	; 21
    269c:	90 93 5e 04 	sts	0x045E, r25
    26a0:	80 93 5d 04 	sts	0x045D, r24
    26a4:	cf 91       	pop	r28
    26a6:	08 95       	ret

000026a8 <fix_set_length>:
    26a8:	ef 92       	push	r14
    26aa:	ff 92       	push	r15
    26ac:	0f 93       	push	r16
    26ae:	1f 93       	push	r17
    26b0:	cf 93       	push	r28
    26b2:	df 93       	push	r29
    26b4:	00 d0       	rcall	.+0      	; 0x26b6 <fix_set_length+0xe>
    26b6:	00 d0       	rcall	.+0      	; 0x26b8 <fix_set_length+0x10>
    26b8:	cd b7       	in	r28, 0x3d	; 61
    26ba:	de b7       	in	r29, 0x3e	; 62
    26bc:	00 91 5b 04 	lds	r16, 0x045B
    26c0:	10 91 5c 04 	lds	r17, 0x045C
    26c4:	78 01       	movw	r14, r16
    26c6:	8f e0       	ldi	r24, 0x0F	; 15
    26c8:	e8 0e       	add	r14, r24
    26ca:	f1 1c       	adc	r15, r1
    26cc:	63 ef       	ldi	r22, 0xF3	; 243
    26ce:	73 e0       	ldi	r23, 0x03	; 3
    26d0:	c7 01       	movw	r24, r14
    26d2:	0e 94 27 1b 	call	0x364e	; 0x364e <strstr>
    26d6:	00 97       	sbiw	r24, 0x00	; 0
    26d8:	19 f0       	breq	.+6      	; 0x26e0 <fix_set_length+0x38>
    26da:	8e 19       	sub	r24, r14
    26dc:	9f 09       	sbc	r25, r15
    26de:	07 c0       	rjmp	.+14     	; 0x26ee <fix_set_length+0x46>
    26e0:	80 91 5d 04 	lds	r24, 0x045D
    26e4:	90 91 5e 04 	lds	r25, 0x045E
    26e8:	80 1b       	sub	r24, r16
    26ea:	91 0b       	sbc	r25, r17
    26ec:	0e 97       	sbiw	r24, 0x0e	; 14
    26ee:	9f 93       	push	r25
    26f0:	8f 93       	push	r24
    26f2:	88 ef       	ldi	r24, 0xF8	; 248
    26f4:	93 e0       	ldi	r25, 0x03	; 3
    26f6:	9f 93       	push	r25
    26f8:	8f 93       	push	r24
    26fa:	ce 01       	movw	r24, r28
    26fc:	01 96       	adiw	r24, 0x01	; 1
    26fe:	9f 93       	push	r25
    2700:	8f 93       	push	r24
    2702:	0e 94 82 1b 	call	0x3704	; 0x3704 <sprintf>
    2706:	e0 91 5b 04 	lds	r30, 0x045B
    270a:	f0 91 5c 04 	lds	r31, 0x045C
    270e:	89 81       	ldd	r24, Y+1	; 0x01
    2710:	84 87       	std	Z+12, r24	; 0x0c
    2712:	8a 81       	ldd	r24, Y+2	; 0x02
    2714:	85 87       	std	Z+13, r24	; 0x0d
    2716:	8b 81       	ldd	r24, Y+3	; 0x03
    2718:	86 87       	std	Z+14, r24	; 0x0e
    271a:	0f 90       	pop	r0
    271c:	0f 90       	pop	r0
    271e:	0f 90       	pop	r0
    2720:	0f 90       	pop	r0
    2722:	0f 90       	pop	r0
    2724:	0f 90       	pop	r0
    2726:	0f 90       	pop	r0
    2728:	0f 90       	pop	r0
    272a:	0f 90       	pop	r0
    272c:	0f 90       	pop	r0
    272e:	df 91       	pop	r29
    2730:	cf 91       	pop	r28
    2732:	1f 91       	pop	r17
    2734:	0f 91       	pop	r16
    2736:	ff 90       	pop	r15
    2738:	ef 90       	pop	r14
    273a:	08 95       	ret

0000273c <fix_add_num>:
    273c:	7f 93       	push	r23
    273e:	6f 93       	push	r22
    2740:	9f 93       	push	r25
    2742:	8f 93       	push	r24
    2744:	8d ef       	ldi	r24, 0xFD	; 253
    2746:	93 e0       	ldi	r25, 0x03	; 3
    2748:	9f 93       	push	r25
    274a:	8f 93       	push	r24
    274c:	80 91 5e 04 	lds	r24, 0x045E
    2750:	8f 93       	push	r24
    2752:	80 91 5d 04 	lds	r24, 0x045D
    2756:	8f 93       	push	r24
    2758:	0e 94 82 1b 	call	0x3704	; 0x3704 <sprintf>
    275c:	a0 91 5d 04 	lds	r26, 0x045D
    2760:	b0 91 5e 04 	lds	r27, 0x045E
    2764:	fd 01       	movw	r30, r26
    2766:	01 90       	ld	r0, Z+
    2768:	00 20       	and	r0, r0
    276a:	e9 f7       	brne	.-6      	; 0x2766 <fix_add_num+0x2a>
    276c:	31 97       	sbiw	r30, 0x01	; 1
    276e:	9f 01       	movw	r18, r30
    2770:	2a 1b       	sub	r18, r26
    2772:	3b 0b       	sbc	r19, r27
    2774:	8c e7       	ldi	r24, 0x7C	; 124
    2776:	80 83       	st	Z, r24
    2778:	2f 5f       	subi	r18, 0xFF	; 255
    277a:	3f 4f       	sbci	r19, 0xFF	; 255
    277c:	80 91 5d 04 	lds	r24, 0x045D
    2780:	90 91 5e 04 	lds	r25, 0x045E
    2784:	82 0f       	add	r24, r18
    2786:	93 1f       	adc	r25, r19
    2788:	90 93 5e 04 	sts	0x045E, r25
    278c:	80 93 5d 04 	sts	0x045D, r24
    2790:	8d b7       	in	r24, 0x3d	; 61
    2792:	9e b7       	in	r25, 0x3e	; 62
    2794:	08 96       	adiw	r24, 0x08	; 8
    2796:	0f b6       	in	r0, 0x3f	; 63
    2798:	f8 94       	cli
    279a:	9e bf       	out	0x3e, r25	; 62
    279c:	0f be       	out	0x3f, r0	; 63
    279e:	8d bf       	out	0x3d, r24	; 61
    27a0:	08 95       	ret

000027a2 <fix_add_string>:
    27a2:	7f 93       	push	r23
    27a4:	6f 93       	push	r22
    27a6:	9f 93       	push	r25
    27a8:	8f 93       	push	r24
    27aa:	83 e0       	ldi	r24, 0x03	; 3
    27ac:	94 e0       	ldi	r25, 0x04	; 4
    27ae:	9f 93       	push	r25
    27b0:	8f 93       	push	r24
    27b2:	80 91 5e 04 	lds	r24, 0x045E
    27b6:	8f 93       	push	r24
    27b8:	80 91 5d 04 	lds	r24, 0x045D
    27bc:	8f 93       	push	r24
    27be:	0e 94 82 1b 	call	0x3704	; 0x3704 <sprintf>
    27c2:	a0 91 5d 04 	lds	r26, 0x045D
    27c6:	b0 91 5e 04 	lds	r27, 0x045E
    27ca:	fd 01       	movw	r30, r26
    27cc:	01 90       	ld	r0, Z+
    27ce:	00 20       	and	r0, r0
    27d0:	e9 f7       	brne	.-6      	; 0x27cc <fix_add_string+0x2a>
    27d2:	31 97       	sbiw	r30, 0x01	; 1
    27d4:	9f 01       	movw	r18, r30
    27d6:	2a 1b       	sub	r18, r26
    27d8:	3b 0b       	sbc	r19, r27
    27da:	8c e7       	ldi	r24, 0x7C	; 124
    27dc:	80 83       	st	Z, r24
    27de:	2f 5f       	subi	r18, 0xFF	; 255
    27e0:	3f 4f       	sbci	r19, 0xFF	; 255
    27e2:	80 91 5d 04 	lds	r24, 0x045D
    27e6:	90 91 5e 04 	lds	r25, 0x045E
    27ea:	82 0f       	add	r24, r18
    27ec:	93 1f       	adc	r25, r19
    27ee:	90 93 5e 04 	sts	0x045E, r25
    27f2:	80 93 5d 04 	sts	0x045D, r24
    27f6:	8d b7       	in	r24, 0x3d	; 61
    27f8:	9e b7       	in	r25, 0x3e	; 62
    27fa:	08 96       	adiw	r24, 0x08	; 8
    27fc:	0f b6       	in	r0, 0x3f	; 63
    27fe:	f8 94       	cli
    2800:	9e bf       	out	0x3e, r25	; 62
    2802:	0f be       	out	0x3f, r0	; 63
    2804:	8d bf       	out	0x3d, r24	; 61
    2806:	08 95       	ret

00002808 <fix_reset>:
    2808:	80 91 5b 04 	lds	r24, 0x045B
    280c:	90 91 5c 04 	lds	r25, 0x045C
    2810:	90 93 5e 04 	sts	0x045E, r25
    2814:	80 93 5d 04 	sts	0x045D, r24
    2818:	08 95       	ret

0000281a <fix_add_sum>:
    281a:	20 91 5d 04 	lds	r18, 0x045D
    281e:	30 91 5e 04 	lds	r19, 0x045E
    2822:	e0 91 5b 04 	lds	r30, 0x045B
    2826:	f0 91 5c 04 	lds	r31, 0x045C
    282a:	80 e0       	ldi	r24, 0x00	; 0
    282c:	90 e0       	ldi	r25, 0x00	; 0
    282e:	dc 01       	movw	r26, r24
    2830:	e2 17       	cp	r30, r18
    2832:	f3 07       	cpc	r31, r19
    2834:	88 f4       	brcc	.+34     	; 0x2858 <fix_add_sum+0x3e>
    2836:	41 91       	ld	r20, Z+
    2838:	4c 37       	cpi	r20, 0x7C	; 124
    283a:	21 f4       	brne	.+8      	; 0x2844 <fix_add_sum+0x2a>
    283c:	01 96       	adiw	r24, 0x01	; 1
    283e:	a1 1d       	adc	r26, r1
    2840:	b1 1d       	adc	r27, r1
    2842:	f6 cf       	rjmp	.-20     	; 0x2830 <fix_add_sum+0x16>
    2844:	55 27       	eor	r21, r21
    2846:	47 fd       	sbrc	r20, 7
    2848:	50 95       	com	r21
    284a:	65 2f       	mov	r22, r21
    284c:	75 2f       	mov	r23, r21
    284e:	84 0f       	add	r24, r20
    2850:	95 1f       	adc	r25, r21
    2852:	a6 1f       	adc	r26, r22
    2854:	b7 1f       	adc	r27, r23
    2856:	ec cf       	rjmp	.-40     	; 0x2830 <fix_add_sum+0x16>
    2858:	bc 01       	movw	r22, r24
    285a:	77 27       	eor	r23, r23
    285c:	8a e0       	ldi	r24, 0x0A	; 10
    285e:	90 e0       	ldi	r25, 0x00	; 0
    2860:	0c 94 9e 13 	jmp	0x273c	; 0x273c <fix_add_num>

00002864 <spiflash_status>:
    2864:	0f 93       	push	r16
    2866:	1f 93       	push	r17
    2868:	cf 93       	push	r28
    286a:	df 93       	push	r29
    286c:	00 d0       	rcall	.+0      	; 0x286e <spiflash_status+0xa>
    286e:	1f 92       	push	r1
    2870:	cd b7       	in	r28, 0x3d	; 61
    2872:	de b7       	in	r29, 0x3e	; 62
    2874:	f8 94       	cli
    2876:	86 e4       	ldi	r24, 0x46	; 70
    2878:	89 83       	std	Y+1, r24	; 0x01
    287a:	87 e0       	ldi	r24, 0x07	; 7
    287c:	8a 83       	std	Y+2, r24	; 0x02
    287e:	85 e0       	ldi	r24, 0x05	; 5
    2880:	8b 83       	std	Y+3, r24	; 0x03
    2882:	63 e0       	ldi	r22, 0x03	; 3
    2884:	70 e0       	ldi	r23, 0x00	; 0
    2886:	ce 01       	movw	r24, r28
    2888:	01 96       	adiw	r24, 0x01	; 1
    288a:	0e 94 6e 11 	call	0x22dc	; 0x22dc <spi_write>
    288e:	e0 91 80 01 	lds	r30, 0x0180
    2892:	f0 91 81 01 	lds	r31, 0x0181
    2896:	80 81       	ld	r24, Z
    2898:	88 23       	and	r24, r24
    289a:	e9 f3       	breq	.-6      	; 0x2896 <spiflash_status+0x32>
    289c:	60 e0       	ldi	r22, 0x00	; 0
    289e:	71 e0       	ldi	r23, 0x01	; 1
    28a0:	88 e8       	ldi	r24, 0x88	; 136
    28a2:	98 e0       	ldi	r25, 0x08	; 8
    28a4:	0e 94 9d 11 	call	0x233a	; 0x233a <spi_read>
    28a8:	8c 01       	movw	r16, r24
    28aa:	82 30       	cpi	r24, 0x02	; 2
    28ac:	91 05       	cpc	r25, r1
    28ae:	2c f4       	brge	.+10     	; 0x28ba <spiflash_status+0x56>
    28b0:	89 e0       	ldi	r24, 0x09	; 9
    28b2:	94 e0       	ldi	r25, 0x04	; 4
    28b4:	0e 94 55 1b 	call	0x36aa	; 0x36aa <puts>
    28b8:	0c c0       	rjmp	.+24     	; 0x28d2 <spiflash_status+0x6e>
    28ba:	80 91 88 08 	lds	r24, 0x0888
    28be:	86 34       	cpi	r24, 0x46	; 70
    28c0:	19 f4       	brne	.+6      	; 0x28c8 <spiflash_status+0x64>
    28c2:	00 91 8a 08 	lds	r16, 0x088A
    28c6:	05 c0       	rjmp	.+10     	; 0x28d2 <spiflash_status+0x6e>
    28c8:	83 e1       	ldi	r24, 0x13	; 19
    28ca:	94 e0       	ldi	r25, 0x04	; 4
    28cc:	0e 94 55 1b 	call	0x36aa	; 0x36aa <puts>
    28d0:	e5 cf       	rjmp	.-54     	; 0x289c <spiflash_status+0x38>
    28d2:	78 94       	sei
    28d4:	80 2f       	mov	r24, r16
    28d6:	0f 90       	pop	r0
    28d8:	0f 90       	pop	r0
    28da:	0f 90       	pop	r0
    28dc:	df 91       	pop	r29
    28de:	cf 91       	pop	r28
    28e0:	1f 91       	pop	r17
    28e2:	0f 91       	pop	r16
    28e4:	08 95       	ret

000028e6 <spiflash_write_enable>:
    28e6:	cf 93       	push	r28
    28e8:	df 93       	push	r29
    28ea:	00 d0       	rcall	.+0      	; 0x28ec <spiflash_write_enable+0x6>
    28ec:	1f 92       	push	r1
    28ee:	cd b7       	in	r28, 0x3d	; 61
    28f0:	de b7       	in	r29, 0x3e	; 62
    28f2:	f8 94       	cli
    28f4:	86 e4       	ldi	r24, 0x46	; 70
    28f6:	89 83       	std	Y+1, r24	; 0x01
    28f8:	83 e0       	ldi	r24, 0x03	; 3
    28fa:	8a 83       	std	Y+2, r24	; 0x02
    28fc:	86 e0       	ldi	r24, 0x06	; 6
    28fe:	8b 83       	std	Y+3, r24	; 0x03
    2900:	63 e0       	ldi	r22, 0x03	; 3
    2902:	70 e0       	ldi	r23, 0x00	; 0
    2904:	ce 01       	movw	r24, r28
    2906:	01 96       	adiw	r24, 0x01	; 1
    2908:	0e 94 6e 11 	call	0x22dc	; 0x22dc <spi_write>
    290c:	78 94       	sei
    290e:	0f 90       	pop	r0
    2910:	0f 90       	pop	r0
    2912:	0f 90       	pop	r0
    2914:	df 91       	pop	r29
    2916:	cf 91       	pop	r28
    2918:	08 95       	ret

0000291a <spiflash_read>:
    291a:	7f 92       	push	r7
    291c:	8f 92       	push	r8
    291e:	9f 92       	push	r9
    2920:	af 92       	push	r10
    2922:	bf 92       	push	r11
    2924:	cf 92       	push	r12
    2926:	df 92       	push	r13
    2928:	ef 92       	push	r14
    292a:	ff 92       	push	r15
    292c:	0f 93       	push	r16
    292e:	1f 93       	push	r17
    2930:	cf 93       	push	r28
    2932:	df 93       	push	r29
    2934:	cd b7       	in	r28, 0x3d	; 61
    2936:	de b7       	in	r29, 0x3e	; 62
    2938:	27 97       	sbiw	r28, 0x07	; 7
    293a:	0f b6       	in	r0, 0x3f	; 63
    293c:	f8 94       	cli
    293e:	de bf       	out	0x3e, r29	; 62
    2940:	0f be       	out	0x3f, r0	; 63
    2942:	cd bf       	out	0x3d, r28	; 61
    2944:	7c 01       	movw	r14, r24
    2946:	8b 01       	movw	r16, r22
    2948:	6a 01       	movw	r12, r20
    294a:	f8 94       	cli
    294c:	86 e4       	ldi	r24, 0x46	; 70
    294e:	98 2e       	mov	r9, r24
    2950:	97 e0       	ldi	r25, 0x07	; 7
    2952:	89 2e       	mov	r8, r25
    2954:	23 e0       	ldi	r18, 0x03	; 3
    2956:	72 2e       	mov	r7, r18
    2958:	10 16       	cp	r1, r16
    295a:	11 06       	cpc	r1, r17
    295c:	0c f0       	brlt	.+2      	; 0x2960 <spiflash_read+0x46>
    295e:	4e c0       	rjmp	.+156    	; 0x29fc <spiflash_read+0xe2>
    2960:	0b 3f       	cpi	r16, 0xFB	; 251
    2962:	11 05       	cpc	r17, r1
    2964:	3c f0       	brlt	.+14     	; 0x2974 <spiflash_read+0x5a>
    2966:	58 01       	movw	r10, r16
    2968:	8a ef       	ldi	r24, 0xFA	; 250
    296a:	a8 1a       	sub	r10, r24
    296c:	b1 08       	sbc	r11, r1
    296e:	0a ef       	ldi	r16, 0xFA	; 250
    2970:	10 e0       	ldi	r17, 0x00	; 0
    2972:	02 c0       	rjmp	.+4      	; 0x2978 <spiflash_read+0x5e>
    2974:	a1 2c       	mov	r10, r1
    2976:	b1 2c       	mov	r11, r1
    2978:	99 82       	std	Y+1, r9	; 0x01
    297a:	8a 82       	std	Y+2, r8	; 0x02
    297c:	7b 82       	std	Y+3, r7	; 0x03
    297e:	1c 82       	std	Y+4, r1	; 0x04
    2980:	fd 82       	std	Y+5, r15	; 0x05
    2982:	ee 82       	std	Y+6, r14	; 0x06
    2984:	0f 83       	std	Y+7, r16	; 0x07
    2986:	67 e0       	ldi	r22, 0x07	; 7
    2988:	70 e0       	ldi	r23, 0x00	; 0
    298a:	ce 01       	movw	r24, r28
    298c:	01 96       	adiw	r24, 0x01	; 1
    298e:	0e 94 6e 11 	call	0x22dc	; 0x22dc <spi_write>
    2992:	e0 91 80 01 	lds	r30, 0x0180
    2996:	f0 91 81 01 	lds	r31, 0x0181
    299a:	80 81       	ld	r24, Z
    299c:	88 23       	and	r24, r24
    299e:	e9 f3       	breq	.-6      	; 0x299a <spiflash_read+0x80>
    29a0:	b8 01       	movw	r22, r16
    29a2:	88 e8       	ldi	r24, 0x88	; 136
    29a4:	98 e0       	ldi	r25, 0x08	; 8
    29a6:	0e 94 9d 11 	call	0x233a	; 0x233a <spi_read>
    29aa:	82 30       	cpi	r24, 0x02	; 2
    29ac:	91 05       	cpc	r25, r1
    29ae:	6c f4       	brge	.+26     	; 0x29ca <spiflash_read+0xb0>
    29b0:	9f 93       	push	r25
    29b2:	8f 93       	push	r24
    29b4:	80 e2       	ldi	r24, 0x20	; 32
    29b6:	94 e0       	ldi	r25, 0x04	; 4
    29b8:	9f 93       	push	r25
    29ba:	8f 93       	push	r24
    29bc:	0e 94 41 1b 	call	0x3682	; 0x3682 <printf>
    29c0:	0f 90       	pop	r0
    29c2:	0f 90       	pop	r0
    29c4:	0f 90       	pop	r0
    29c6:	0f 90       	pop	r0
    29c8:	08 c0       	rjmp	.+16     	; 0x29da <spiflash_read+0xc0>
    29ca:	20 91 88 08 	lds	r18, 0x0888
    29ce:	26 34       	cpi	r18, 0x46	; 70
    29d0:	39 f0       	breq	.+14     	; 0x29e0 <spiflash_read+0xc6>
    29d2:	84 e1       	ldi	r24, 0x14	; 20
    29d4:	94 e0       	ldi	r25, 0x04	; 4
    29d6:	0e 94 55 1b 	call	0x36aa	; 0x36aa <puts>
    29da:	8f ef       	ldi	r24, 0xFF	; 255
    29dc:	9f ef       	ldi	r25, 0xFF	; 255
    29de:	10 c0       	rjmp	.+32     	; 0x2a00 <spiflash_read+0xe6>
    29e0:	ac 01       	movw	r20, r24
    29e2:	42 50       	subi	r20, 0x02	; 2
    29e4:	51 09       	sbc	r21, r1
    29e6:	6a e8       	ldi	r22, 0x8A	; 138
    29e8:	78 e0       	ldi	r23, 0x08	; 8
    29ea:	c6 01       	movw	r24, r12
    29ec:	0e 94 07 1b 	call	0x360e	; 0x360e <memcpy>
    29f0:	e0 0e       	add	r14, r16
    29f2:	f1 1e       	adc	r15, r17
    29f4:	c0 0e       	add	r12, r16
    29f6:	d1 1e       	adc	r13, r17
    29f8:	85 01       	movw	r16, r10
    29fa:	ae cf       	rjmp	.-164    	; 0x2958 <spiflash_read+0x3e>
    29fc:	78 94       	sei
    29fe:	c8 01       	movw	r24, r16
    2a00:	27 96       	adiw	r28, 0x07	; 7
    2a02:	0f b6       	in	r0, 0x3f	; 63
    2a04:	f8 94       	cli
    2a06:	de bf       	out	0x3e, r29	; 62
    2a08:	0f be       	out	0x3f, r0	; 63
    2a0a:	cd bf       	out	0x3d, r28	; 61
    2a0c:	df 91       	pop	r29
    2a0e:	cf 91       	pop	r28
    2a10:	1f 91       	pop	r17
    2a12:	0f 91       	pop	r16
    2a14:	ff 90       	pop	r15
    2a16:	ef 90       	pop	r14
    2a18:	df 90       	pop	r13
    2a1a:	cf 90       	pop	r12
    2a1c:	bf 90       	pop	r11
    2a1e:	af 90       	pop	r10
    2a20:	9f 90       	pop	r9
    2a22:	8f 90       	pop	r8
    2a24:	7f 90       	pop	r7
    2a26:	08 95       	ret

00002a28 <spiflash_write>:
    2a28:	cf 93       	push	r28
    2a2a:	df 93       	push	r29
    2a2c:	cd b7       	in	r28, 0x3d	; 61
    2a2e:	de b7       	in	r29, 0x3e	; 62
    2a30:	c6 50       	subi	r28, 0x06	; 6
    2a32:	d1 40       	sbci	r29, 0x01	; 1
    2a34:	0f b6       	in	r0, 0x3f	; 63
    2a36:	f8 94       	cli
    2a38:	de bf       	out	0x3e, r29	; 62
    2a3a:	0f be       	out	0x3f, r0	; 63
    2a3c:	cd bf       	out	0x3d, r28	; 61
    2a3e:	f8 94       	cli
    2a40:	26 e4       	ldi	r18, 0x46	; 70
    2a42:	29 83       	std	Y+1, r18	; 0x01
    2a44:	26 e0       	ldi	r18, 0x06	; 6
    2a46:	24 0f       	add	r18, r20
    2a48:	2a 83       	std	Y+2, r18	; 0x02
    2a4a:	22 e0       	ldi	r18, 0x02	; 2
    2a4c:	2b 83       	std	Y+3, r18	; 0x03
    2a4e:	1c 82       	std	Y+4, r1	; 0x04
    2a50:	9d 83       	std	Y+5, r25	; 0x05
    2a52:	8e 83       	std	Y+6, r24	; 0x06
    2a54:	de 01       	movw	r26, r28
    2a56:	17 96       	adiw	r26, 0x07	; 7
    2a58:	fb 01       	movw	r30, r22
    2a5a:	50 e0       	ldi	r21, 0x00	; 0
    2a5c:	cf 01       	movw	r24, r30
    2a5e:	86 1b       	sub	r24, r22
    2a60:	97 0b       	sbc	r25, r23
    2a62:	84 17       	cp	r24, r20
    2a64:	95 07       	cpc	r25, r21
    2a66:	1c f4       	brge	.+6      	; 0x2a6e <spiflash_write+0x46>
    2a68:	81 91       	ld	r24, Z+
    2a6a:	8d 93       	st	X+, r24
    2a6c:	f7 cf       	rjmp	.-18     	; 0x2a5c <spiflash_write+0x34>
    2a6e:	ba 01       	movw	r22, r20
    2a70:	6a 5f       	subi	r22, 0xFA	; 250
    2a72:	7f 4f       	sbci	r23, 0xFF	; 255
    2a74:	ce 01       	movw	r24, r28
    2a76:	01 96       	adiw	r24, 0x01	; 1
    2a78:	0e 94 6e 11 	call	0x22dc	; 0x22dc <spi_write>
    2a7c:	78 94       	sei
    2a7e:	ca 5f       	subi	r28, 0xFA	; 250
    2a80:	de 4f       	sbci	r29, 0xFE	; 254
    2a82:	0f b6       	in	r0, 0x3f	; 63
    2a84:	f8 94       	cli
    2a86:	de bf       	out	0x3e, r29	; 62
    2a88:	0f be       	out	0x3f, r0	; 63
    2a8a:	cd bf       	out	0x3d, r28	; 61
    2a8c:	df 91       	pop	r29
    2a8e:	cf 91       	pop	r28
    2a90:	08 95       	ret

00002a92 <json_kv>:
    2a92:	af 92       	push	r10
    2a94:	bf 92       	push	r11
    2a96:	cf 92       	push	r12
    2a98:	df 92       	push	r13
    2a9a:	ef 92       	push	r14
    2a9c:	ff 92       	push	r15
    2a9e:	0f 93       	push	r16
    2aa0:	1f 93       	push	r17
    2aa2:	cf 93       	push	r28
    2aa4:	df 93       	push	r29
    2aa6:	7b 01       	movw	r14, r22
    2aa8:	5a 01       	movw	r10, r20
    2aaa:	69 01       	movw	r12, r18
    2aac:	16 16       	cp	r1, r22
    2aae:	17 06       	cpc	r1, r23
    2ab0:	1c f0       	brlt	.+6      	; 0x2ab8 <json_kv+0x26>
    2ab2:	80 e0       	ldi	r24, 0x00	; 0
    2ab4:	90 e0       	ldi	r25, 0x00	; 0
    2ab6:	4f c0       	rjmp	.+158    	; 0x2b56 <json_kv+0xc4>
    2ab8:	ec 01       	movw	r28, r24
    2aba:	00 e0       	ldi	r16, 0x00	; 0
    2abc:	10 e0       	ldi	r17, 0x00	; 0
    2abe:	80 e0       	ldi	r24, 0x00	; 0
    2ac0:	90 e0       	ldi	r25, 0x00	; 0
    2ac2:	28 81       	ld	r18, Y
    2ac4:	39 81       	ldd	r19, Y+1	; 0x01
    2ac6:	23 2b       	or	r18, r19
    2ac8:	e1 f5       	brne	.+120    	; 0x2b42 <json_kv+0xb0>
    2aca:	01 97       	sbiw	r24, 0x01	; 1
    2acc:	c1 f4       	brne	.+48     	; 0x2afe <json_kv+0x6c>
    2ace:	8a 81       	ldd	r24, Y+2	; 0x02
    2ad0:	9b 81       	ldd	r25, Y+3	; 0x03
    2ad2:	d5 01       	movw	r26, r10
    2ad4:	a8 0f       	add	r26, r24
    2ad6:	b9 1f       	adc	r27, r25
    2ad8:	e5 ec       	ldi	r30, 0xC5	; 197
    2ada:	f4 e0       	ldi	r31, 0x04	; 4
    2adc:	85 5c       	subi	r24, 0xC5	; 197
    2ade:	94 40       	sbci	r25, 0x04	; 4
    2ae0:	2c 81       	ldd	r18, Y+4	; 0x04
    2ae2:	3d 81       	ldd	r19, Y+5	; 0x05
    2ae4:	ac 01       	movw	r20, r24
    2ae6:	4e 0f       	add	r20, r30
    2ae8:	5f 1f       	adc	r21, r31
    2aea:	42 17       	cp	r20, r18
    2aec:	53 07       	cpc	r21, r19
    2aee:	1c f4       	brge	.+6      	; 0x2af6 <json_kv+0x64>
    2af0:	2d 91       	ld	r18, X+
    2af2:	21 93       	st	Z+, r18
    2af4:	f5 cf       	rjmp	.-22     	; 0x2ae0 <json_kv+0x4e>
    2af6:	10 82       	st	Z, r1
    2af8:	85 ec       	ldi	r24, 0xC5	; 197
    2afa:	94 e0       	ldi	r25, 0x04	; 4
    2afc:	2c c0       	rjmp	.+88     	; 0x2b56 <json_kv+0xc4>
    2afe:	8a 81       	ldd	r24, Y+2	; 0x02
    2b00:	9b 81       	ldd	r25, Y+3	; 0x03
    2b02:	d5 01       	movw	r26, r10
    2b04:	a8 0f       	add	r26, r24
    2b06:	b9 1f       	adc	r27, r25
    2b08:	e5 ec       	ldi	r30, 0xC5	; 197
    2b0a:	f4 e0       	ldi	r31, 0x04	; 4
    2b0c:	85 5c       	subi	r24, 0xC5	; 197
    2b0e:	94 40       	sbci	r25, 0x04	; 4
    2b10:	2c 81       	ldd	r18, Y+4	; 0x04
    2b12:	3d 81       	ldd	r19, Y+5	; 0x05
    2b14:	ac 01       	movw	r20, r24
    2b16:	4e 0f       	add	r20, r30
    2b18:	5f 1f       	adc	r21, r31
    2b1a:	42 17       	cp	r20, r18
    2b1c:	53 07       	cpc	r21, r19
    2b1e:	1c f4       	brge	.+6      	; 0x2b26 <json_kv+0x94>
    2b20:	2d 91       	ld	r18, X+
    2b22:	21 93       	st	Z+, r18
    2b24:	f5 cf       	rjmp	.-22     	; 0x2b10 <json_kv+0x7e>
    2b26:	10 82       	st	Z, r1
    2b28:	b6 01       	movw	r22, r12
    2b2a:	85 ec       	ldi	r24, 0xC5	; 197
    2b2c:	94 e0       	ldi	r25, 0x04	; 4
    2b2e:	0e 94 17 1b 	call	0x362e	; 0x362e <strcmp>
    2b32:	31 e0       	ldi	r19, 0x01	; 1
    2b34:	20 e0       	ldi	r18, 0x00	; 0
    2b36:	89 2b       	or	r24, r25
    2b38:	09 f0       	breq	.+2      	; 0x2b3c <json_kv+0xaa>
    2b3a:	30 e0       	ldi	r19, 0x00	; 0
    2b3c:	83 2f       	mov	r24, r19
    2b3e:	92 2f       	mov	r25, r18
    2b40:	02 c0       	rjmp	.+4      	; 0x2b46 <json_kv+0xb4>
    2b42:	80 e0       	ldi	r24, 0x00	; 0
    2b44:	90 e0       	ldi	r25, 0x00	; 0
    2b46:	0f 5f       	subi	r16, 0xFF	; 255
    2b48:	1f 4f       	sbci	r17, 0xFF	; 255
    2b4a:	28 96       	adiw	r28, 0x08	; 8
    2b4c:	0e 15       	cp	r16, r14
    2b4e:	1f 05       	cpc	r17, r15
    2b50:	09 f0       	breq	.+2      	; 0x2b54 <json_kv+0xc2>
    2b52:	b7 cf       	rjmp	.-146    	; 0x2ac2 <json_kv+0x30>
    2b54:	ae cf       	rjmp	.-164    	; 0x2ab2 <json_kv+0x20>
    2b56:	df 91       	pop	r29
    2b58:	cf 91       	pop	r28
    2b5a:	1f 91       	pop	r17
    2b5c:	0f 91       	pop	r16
    2b5e:	ff 90       	pop	r15
    2b60:	ef 90       	pop	r14
    2b62:	df 90       	pop	r13
    2b64:	cf 90       	pop	r12
    2b66:	bf 90       	pop	r11
    2b68:	af 90       	pop	r10
    2b6a:	08 95       	ret

00002b6c <jsmn_parse>:
    2b6c:	2f 92       	push	r2
    2b6e:	3f 92       	push	r3
    2b70:	4f 92       	push	r4
    2b72:	5f 92       	push	r5
    2b74:	6f 92       	push	r6
    2b76:	7f 92       	push	r7
    2b78:	8f 92       	push	r8
    2b7a:	9f 92       	push	r9
    2b7c:	af 92       	push	r10
    2b7e:	bf 92       	push	r11
    2b80:	cf 92       	push	r12
    2b82:	df 92       	push	r13
    2b84:	ef 92       	push	r14
    2b86:	ff 92       	push	r15
    2b88:	0f 93       	push	r16
    2b8a:	1f 93       	push	r17
    2b8c:	cf 93       	push	r28
    2b8e:	df 93       	push	r29
    2b90:	fc 01       	movw	r30, r24
    2b92:	5b 01       	movw	r10, r22
    2b94:	3a 01       	movw	r6, r20
    2b96:	48 01       	movw	r8, r16
    2b98:	21 2c       	mov	r2, r1
    2b9a:	31 2c       	mov	r3, r1
    2b9c:	0f ef       	ldi	r16, 0xFF	; 255
    2b9e:	1f ef       	ldi	r17, 0xFF	; 255
    2ba0:	63 e0       	ldi	r22, 0x03	; 3
    2ba2:	46 2e       	mov	r4, r22
    2ba4:	51 2c       	mov	r5, r1
    2ba6:	80 81       	ld	r24, Z
    2ba8:	91 81       	ldd	r25, Z+1	; 0x01
    2baa:	86 15       	cp	r24, r6
    2bac:	97 05       	cpc	r25, r7
    2bae:	70 f0       	brcs	.+28     	; 0x2bcc <jsmn_parse+0x60>
    2bb0:	42 81       	ldd	r20, Z+2	; 0x02
    2bb2:	53 81       	ldd	r21, Z+3	; 0x03
    2bb4:	ca 01       	movw	r24, r20
    2bb6:	01 97       	sbiw	r24, 0x01	; 1
    2bb8:	63 e0       	ldi	r22, 0x03	; 3
    2bba:	44 0f       	add	r20, r20
    2bbc:	55 1f       	adc	r21, r21
    2bbe:	6a 95       	dec	r22
    2bc0:	e1 f7       	brne	.-8      	; 0x2bba <jsmn_parse+0x4e>
    2bc2:	42 0f       	add	r20, r18
    2bc4:	53 1f       	adc	r21, r19
    2bc6:	20 e0       	ldi	r18, 0x00	; 0
    2bc8:	30 e0       	ldi	r19, 0x00	; 0
    2bca:	52 c2       	rjmp	.+1188   	; 0x3070 <jsmn_parse+0x504>
    2bcc:	d5 01       	movw	r26, r10
    2bce:	a8 0f       	add	r26, r24
    2bd0:	b9 1f       	adc	r27, r25
    2bd2:	4c 91       	ld	r20, X
    2bd4:	44 23       	and	r20, r20
    2bd6:	61 f3       	breq	.-40     	; 0x2bb0 <jsmn_parse+0x44>
    2bd8:	4c 32       	cpi	r20, 0x2C	; 44
    2bda:	09 f4       	brne	.+2      	; 0x2bde <jsmn_parse+0x72>
    2bdc:	7c c1       	rjmp	.+760    	; 0x2ed6 <jsmn_parse+0x36a>
    2bde:	bc f4       	brge	.+46     	; 0x2c0e <jsmn_parse+0xa2>
    2be0:	4d 30       	cpi	r20, 0x0D	; 13
    2be2:	09 f4       	brne	.+2      	; 0x2be6 <jsmn_parse+0x7a>
    2be4:	32 c2       	rjmp	.+1124   	; 0x304a <jsmn_parse+0x4de>
    2be6:	34 f4       	brge	.+12     	; 0x2bf4 <jsmn_parse+0x88>
    2be8:	67 ef       	ldi	r22, 0xF7	; 247
    2bea:	64 0f       	add	r22, r20
    2bec:	62 30       	cpi	r22, 0x02	; 2
    2bee:	08 f4       	brcc	.+2      	; 0x2bf2 <jsmn_parse+0x86>
    2bf0:	2c c2       	rjmp	.+1112   	; 0x304a <jsmn_parse+0x4de>
    2bf2:	c4 c1       	rjmp	.+904    	; 0x2f7c <jsmn_parse+0x410>
    2bf4:	40 32       	cpi	r20, 0x20	; 32
    2bf6:	09 f4       	brne	.+2      	; 0x2bfa <jsmn_parse+0x8e>
    2bf8:	28 c2       	rjmp	.+1104   	; 0x304a <jsmn_parse+0x4de>
    2bfa:	42 32       	cpi	r20, 0x22	; 34
    2bfc:	09 f0       	breq	.+2      	; 0x2c00 <jsmn_parse+0x94>
    2bfe:	be c1       	rjmp	.+892    	; 0x2f7c <jsmn_parse+0x410>
    2c00:	6c 01       	movw	r12, r24
    2c02:	af ef       	ldi	r26, 0xFF	; 255
    2c04:	ca 1a       	sub	r12, r26
    2c06:	da 0a       	sbc	r13, r26
    2c08:	d1 82       	std	Z+1, r13	; 0x01
    2c0a:	c0 82       	st	Z, r12
    2c0c:	d0 c0       	rjmp	.+416    	; 0x2dae <jsmn_parse+0x242>
    2c0e:	4d 35       	cpi	r20, 0x5D	; 93
    2c10:	09 f4       	brne	.+2      	; 0x2c14 <jsmn_parse+0xa8>
    2c12:	5d c0       	rjmp	.+186    	; 0x2cce <jsmn_parse+0x162>
    2c14:	34 f4       	brge	.+12     	; 0x2c22 <jsmn_parse+0xb6>
    2c16:	4a 33       	cpi	r20, 0x3A	; 58
    2c18:	09 f4       	brne	.+2      	; 0x2c1c <jsmn_parse+0xb0>
    2c1a:	59 c1       	rjmp	.+690    	; 0x2ece <jsmn_parse+0x362>
    2c1c:	4b 35       	cpi	r20, 0x5B	; 91
    2c1e:	39 f0       	breq	.+14     	; 0x2c2e <jsmn_parse+0xc2>
    2c20:	ad c1       	rjmp	.+858    	; 0x2f7c <jsmn_parse+0x410>
    2c22:	4b 37       	cpi	r20, 0x7B	; 123
    2c24:	21 f0       	breq	.+8      	; 0x2c2e <jsmn_parse+0xc2>
    2c26:	4d 37       	cpi	r20, 0x7D	; 125
    2c28:	09 f4       	brne	.+2      	; 0x2c2c <jsmn_parse+0xc0>
    2c2a:	51 c0       	rjmp	.+162    	; 0x2cce <jsmn_parse+0x162>
    2c2c:	a7 c1       	rjmp	.+846    	; 0x2f7c <jsmn_parse+0x410>
    2c2e:	5f ef       	ldi	r21, 0xFF	; 255
    2c30:	25 1a       	sub	r2, r21
    2c32:	35 0a       	sbc	r3, r21
    2c34:	21 15       	cp	r18, r1
    2c36:	31 05       	cpc	r19, r1
    2c38:	09 f4       	brne	.+2      	; 0x2c3c <jsmn_parse+0xd0>
    2c3a:	07 c2       	rjmp	.+1038   	; 0x304a <jsmn_parse+0x4de>
    2c3c:	c2 80       	ldd	r12, Z+2	; 0x02
    2c3e:	d3 80       	ldd	r13, Z+3	; 0x03
    2c40:	c8 14       	cp	r12, r8
    2c42:	d9 04       	cpc	r13, r9
    2c44:	08 f0       	brcs	.+2      	; 0x2c48 <jsmn_parse+0xdc>
    2c46:	b9 c1       	rjmp	.+882    	; 0x2fba <jsmn_parse+0x44e>
    2c48:	b6 01       	movw	r22, r12
    2c4a:	6f 5f       	subi	r22, 0xFF	; 255
    2c4c:	7f 4f       	sbci	r23, 0xFF	; 255
    2c4e:	73 83       	std	Z+3, r23	; 0x03
    2c50:	62 83       	std	Z+2, r22	; 0x02
    2c52:	d6 01       	movw	r26, r12
    2c54:	53 e0       	ldi	r21, 0x03	; 3
    2c56:	aa 0f       	add	r26, r26
    2c58:	bb 1f       	adc	r27, r27
    2c5a:	5a 95       	dec	r21
    2c5c:	e1 f7       	brne	.-8      	; 0x2c56 <jsmn_parse+0xea>
    2c5e:	a2 0f       	add	r26, r18
    2c60:	b3 1f       	adc	r27, r19
    2c62:	15 96       	adiw	r26, 0x05	; 5
    2c64:	1c 93       	st	X, r17
    2c66:	0e 93       	st	-X, r16
    2c68:	14 97       	sbiw	r26, 0x04	; 4
    2c6a:	13 96       	adiw	r26, 0x03	; 3
    2c6c:	1c 93       	st	X, r17
    2c6e:	0e 93       	st	-X, r16
    2c70:	12 97       	sbiw	r26, 0x02	; 2
    2c72:	17 96       	adiw	r26, 0x07	; 7
    2c74:	1c 92       	st	X, r1
    2c76:	1e 92       	st	-X, r1
    2c78:	16 97       	sbiw	r26, 0x06	; 6
    2c7a:	10 97       	sbiw	r26, 0x00	; 0
    2c7c:	09 f4       	brne	.+2      	; 0x2c80 <jsmn_parse+0x114>
    2c7e:	9d c1       	rjmp	.+826    	; 0x2fba <jsmn_parse+0x44e>
    2c80:	64 81       	ldd	r22, Z+4	; 0x04
    2c82:	75 81       	ldd	r23, Z+5	; 0x05
    2c84:	6f 3f       	cpi	r22, 0xFF	; 255
    2c86:	cf ef       	ldi	r28, 0xFF	; 255
    2c88:	7c 07       	cpc	r23, r28
    2c8a:	81 f0       	breq	.+32     	; 0x2cac <jsmn_parse+0x140>
    2c8c:	d3 e0       	ldi	r29, 0x03	; 3
    2c8e:	66 0f       	add	r22, r22
    2c90:	77 1f       	adc	r23, r23
    2c92:	da 95       	dec	r29
    2c94:	e1 f7       	brne	.-8      	; 0x2c8e <jsmn_parse+0x122>
    2c96:	62 0f       	add	r22, r18
    2c98:	73 1f       	adc	r23, r19
    2c9a:	eb 01       	movw	r28, r22
    2c9c:	ee 80       	ldd	r14, Y+6	; 0x06
    2c9e:	ff 80       	ldd	r15, Y+7	; 0x07
    2ca0:	df ef       	ldi	r29, 0xFF	; 255
    2ca2:	ed 1a       	sub	r14, r29
    2ca4:	fd 0a       	sbc	r15, r29
    2ca6:	eb 01       	movw	r28, r22
    2ca8:	ff 82       	std	Y+7, r15	; 0x07
    2caa:	ee 82       	std	Y+6, r14	; 0x06
    2cac:	4b 37       	cpi	r20, 0x7B	; 123
    2cae:	19 f4       	brne	.+6      	; 0x2cb6 <jsmn_parse+0x14a>
    2cb0:	61 e0       	ldi	r22, 0x01	; 1
    2cb2:	70 e0       	ldi	r23, 0x00	; 0
    2cb4:	02 c0       	rjmp	.+4      	; 0x2cba <jsmn_parse+0x14e>
    2cb6:	62 e0       	ldi	r22, 0x02	; 2
    2cb8:	70 e0       	ldi	r23, 0x00	; 0
    2cba:	11 96       	adiw	r26, 0x01	; 1
    2cbc:	7c 93       	st	X, r23
    2cbe:	6e 93       	st	-X, r22
    2cc0:	13 96       	adiw	r26, 0x03	; 3
    2cc2:	9c 93       	st	X, r25
    2cc4:	8e 93       	st	-X, r24
    2cc6:	12 97       	sbiw	r26, 0x02	; 2
    2cc8:	d5 82       	std	Z+5, r13	; 0x05
    2cca:	c4 82       	std	Z+4, r12	; 0x04
    2ccc:	be c1       	rjmp	.+892    	; 0x304a <jsmn_parse+0x4de>
    2cce:	21 15       	cp	r18, r1
    2cd0:	31 05       	cpc	r19, r1
    2cd2:	09 f4       	brne	.+2      	; 0x2cd6 <jsmn_parse+0x16a>
    2cd4:	ba c1       	rjmp	.+884    	; 0x304a <jsmn_parse+0x4de>
    2cd6:	4d 37       	cpi	r20, 0x7D	; 125
    2cd8:	19 f4       	brne	.+6      	; 0x2ce0 <jsmn_parse+0x174>
    2cda:	41 e0       	ldi	r20, 0x01	; 1
    2cdc:	50 e0       	ldi	r21, 0x00	; 0
    2cde:	02 c0       	rjmp	.+4      	; 0x2ce4 <jsmn_parse+0x178>
    2ce0:	42 e0       	ldi	r20, 0x02	; 2
    2ce2:	50 e0       	ldi	r21, 0x00	; 0
    2ce4:	a2 81       	ldd	r26, Z+2	; 0x02
    2ce6:	b3 81       	ldd	r27, Z+3	; 0x03
    2ce8:	bd 01       	movw	r22, r26
    2cea:	61 50       	subi	r22, 0x01	; 1
    2cec:	71 09       	sbc	r23, r1
    2cee:	a1 50       	subi	r26, 0x01	; 1
    2cf0:	b0 4e       	sbci	r27, 0xE0	; 224
    2cf2:	c3 e0       	ldi	r28, 0x03	; 3
    2cf4:	aa 0f       	add	r26, r26
    2cf6:	bb 1f       	adc	r27, r27
    2cf8:	ca 95       	dec	r28
    2cfa:	e1 f7       	brne	.-8      	; 0x2cf4 <jsmn_parse+0x188>
    2cfc:	a2 0f       	add	r26, r18
    2cfe:	b3 1f       	adc	r27, r19
    2d00:	77 fd       	sbrc	r23, 7
    2d02:	22 c0       	rjmp	.+68     	; 0x2d48 <jsmn_parse+0x1dc>
    2d04:	12 96       	adiw	r26, 0x02	; 2
    2d06:	ed 90       	ld	r14, X+
    2d08:	fc 90       	ld	r15, X
    2d0a:	13 97       	sbiw	r26, 0x03	; 3
    2d0c:	ef 20       	and	r14, r15
    2d0e:	e0 94       	com	r14
    2d10:	b9 f0       	breq	.+46     	; 0x2d40 <jsmn_parse+0x1d4>
    2d12:	14 96       	adiw	r26, 0x04	; 4
    2d14:	ed 90       	ld	r14, X+
    2d16:	fc 90       	ld	r15, X
    2d18:	15 97       	sbiw	r26, 0x05	; 5
    2d1a:	cf ef       	ldi	r28, 0xFF	; 255
    2d1c:	ec 16       	cp	r14, r28
    2d1e:	fc 06       	cpc	r15, r28
    2d20:	79 f4       	brne	.+30     	; 0x2d40 <jsmn_parse+0x1d4>
    2d22:	cd 90       	ld	r12, X+
    2d24:	dc 90       	ld	r13, X
    2d26:	11 97       	sbiw	r26, 0x01	; 1
    2d28:	c4 16       	cp	r12, r20
    2d2a:	d5 06       	cpc	r13, r21
    2d2c:	09 f0       	breq	.+2      	; 0x2d30 <jsmn_parse+0x1c4>
    2d2e:	ad c1       	rjmp	.+858    	; 0x308a <jsmn_parse+0x51e>
    2d30:	f5 82       	std	Z+5, r15	; 0x05
    2d32:	e4 82       	std	Z+4, r14	; 0x04
    2d34:	01 96       	adiw	r24, 0x01	; 1
    2d36:	15 96       	adiw	r26, 0x05	; 5
    2d38:	9c 93       	st	X, r25
    2d3a:	8e 93       	st	-X, r24
    2d3c:	14 97       	sbiw	r26, 0x04	; 4
    2d3e:	09 c0       	rjmp	.+18     	; 0x2d52 <jsmn_parse+0x1e6>
    2d40:	61 50       	subi	r22, 0x01	; 1
    2d42:	71 09       	sbc	r23, r1
    2d44:	18 97       	sbiw	r26, 0x08	; 8
    2d46:	dc cf       	rjmp	.-72     	; 0x2d00 <jsmn_parse+0x194>
    2d48:	6f 3f       	cpi	r22, 0xFF	; 255
    2d4a:	df ef       	ldi	r29, 0xFF	; 255
    2d4c:	7d 07       	cpc	r23, r29
    2d4e:	09 f4       	brne	.+2      	; 0x2d52 <jsmn_parse+0x1e6>
    2d50:	9c c1       	rjmp	.+824    	; 0x308a <jsmn_parse+0x51e>
    2d52:	db 01       	movw	r26, r22
    2d54:	53 e0       	ldi	r21, 0x03	; 3
    2d56:	aa 0f       	add	r26, r26
    2d58:	bb 1f       	adc	r27, r27
    2d5a:	5a 95       	dec	r21
    2d5c:	e1 f7       	brne	.-8      	; 0x2d56 <jsmn_parse+0x1ea>
    2d5e:	a2 0f       	add	r26, r18
    2d60:	b3 1f       	adc	r27, r19
    2d62:	77 fd       	sbrc	r23, 7
    2d64:	72 c1       	rjmp	.+740    	; 0x304a <jsmn_parse+0x4de>
    2d66:	12 96       	adiw	r26, 0x02	; 2
    2d68:	8d 91       	ld	r24, X+
    2d6a:	9c 91       	ld	r25, X
    2d6c:	13 97       	sbiw	r26, 0x03	; 3
    2d6e:	01 96       	adiw	r24, 0x01	; 1
    2d70:	49 f0       	breq	.+18     	; 0x2d84 <jsmn_parse+0x218>
    2d72:	14 96       	adiw	r26, 0x04	; 4
    2d74:	8d 91       	ld	r24, X+
    2d76:	9c 91       	ld	r25, X
    2d78:	15 97       	sbiw	r26, 0x05	; 5
    2d7a:	01 96       	adiw	r24, 0x01	; 1
    2d7c:	19 f4       	brne	.+6      	; 0x2d84 <jsmn_parse+0x218>
    2d7e:	75 83       	std	Z+5, r23	; 0x05
    2d80:	64 83       	std	Z+4, r22	; 0x04
    2d82:	63 c1       	rjmp	.+710    	; 0x304a <jsmn_parse+0x4de>
    2d84:	61 50       	subi	r22, 0x01	; 1
    2d86:	71 09       	sbc	r23, r1
    2d88:	18 97       	sbiw	r26, 0x08	; 8
    2d8a:	eb cf       	rjmp	.-42     	; 0x2d62 <jsmn_parse+0x1f6>
    2d8c:	d5 01       	movw	r26, r10
    2d8e:	a6 0f       	add	r26, r22
    2d90:	b7 1f       	adc	r27, r23
    2d92:	ac 91       	ld	r26, X
    2d94:	aa 23       	and	r26, r26
    2d96:	81 f0       	breq	.+32     	; 0x2db8 <jsmn_parse+0x24c>
    2d98:	a2 32       	cpi	r26, 0x22	; 34
    2d9a:	89 f0       	breq	.+34     	; 0x2dbe <jsmn_parse+0x252>
    2d9c:	ac 35       	cpi	r26, 0x5C	; 92
    2d9e:	09 f4       	brne	.+2      	; 0x2da2 <jsmn_parse+0x236>
    2da0:	40 c0       	rjmp	.+128    	; 0x2e22 <jsmn_parse+0x2b6>
    2da2:	60 81       	ld	r22, Z
    2da4:	71 81       	ldd	r23, Z+1	; 0x01
    2da6:	6f 5f       	subi	r22, 0xFF	; 255
    2da8:	7f 4f       	sbci	r23, 0xFF	; 255
    2daa:	71 83       	std	Z+1, r23	; 0x01
    2dac:	60 83       	st	Z, r22
    2dae:	60 81       	ld	r22, Z
    2db0:	71 81       	ldd	r23, Z+1	; 0x01
    2db2:	66 15       	cp	r22, r6
    2db4:	77 05       	cpc	r23, r7
    2db6:	50 f3       	brcs	.-44     	; 0x2d8c <jsmn_parse+0x220>
    2db8:	91 83       	std	Z+1, r25	; 0x01
    2dba:	80 83       	st	Z, r24
    2dbc:	68 c1       	rjmp	.+720    	; 0x308e <jsmn_parse+0x522>
    2dbe:	21 15       	cp	r18, r1
    2dc0:	31 05       	cpc	r19, r1
    2dc2:	09 f4       	brne	.+2      	; 0x2dc6 <jsmn_parse+0x25a>
    2dc4:	67 c1       	rjmp	.+718    	; 0x3094 <jsmn_parse+0x528>
    2dc6:	a2 81       	ldd	r26, Z+2	; 0x02
    2dc8:	b3 81       	ldd	r27, Z+3	; 0x03
    2dca:	a8 15       	cp	r26, r8
    2dcc:	b9 05       	cpc	r27, r9
    2dce:	08 f0       	brcs	.+2      	; 0x2dd2 <jsmn_parse+0x266>
    2dd0:	f2 c0       	rjmp	.+484    	; 0x2fb6 <jsmn_parse+0x44a>
    2dd2:	7d 01       	movw	r14, r26
    2dd4:	cf ef       	ldi	r28, 0xFF	; 255
    2dd6:	ec 1a       	sub	r14, r28
    2dd8:	fc 0a       	sbc	r15, r28
    2dda:	f3 82       	std	Z+3, r15	; 0x03
    2ddc:	e2 82       	std	Z+2, r14	; 0x02
    2dde:	43 e0       	ldi	r20, 0x03	; 3
    2de0:	aa 0f       	add	r26, r26
    2de2:	bb 1f       	adc	r27, r27
    2de4:	4a 95       	dec	r20
    2de6:	e1 f7       	brne	.-8      	; 0x2de0 <jsmn_parse+0x274>
    2de8:	a2 0f       	add	r26, r18
    2dea:	b3 1f       	adc	r27, r19
    2dec:	15 96       	adiw	r26, 0x05	; 5
    2dee:	1c 93       	st	X, r17
    2df0:	0e 93       	st	-X, r16
    2df2:	14 97       	sbiw	r26, 0x04	; 4
    2df4:	13 96       	adiw	r26, 0x03	; 3
    2df6:	1c 93       	st	X, r17
    2df8:	0e 93       	st	-X, r16
    2dfa:	12 97       	sbiw	r26, 0x02	; 2
    2dfc:	17 96       	adiw	r26, 0x07	; 7
    2dfe:	1c 92       	st	X, r1
    2e00:	1e 92       	st	-X, r1
    2e02:	16 97       	sbiw	r26, 0x06	; 6
    2e04:	10 97       	sbiw	r26, 0x00	; 0
    2e06:	09 f4       	brne	.+2      	; 0x2e0a <jsmn_parse+0x29e>
    2e08:	d6 c0       	rjmp	.+428    	; 0x2fb6 <jsmn_parse+0x44a>
    2e0a:	11 96       	adiw	r26, 0x01	; 1
    2e0c:	5c 92       	st	X, r5
    2e0e:	4e 92       	st	-X, r4
    2e10:	13 96       	adiw	r26, 0x03	; 3
    2e12:	dc 92       	st	X, r13
    2e14:	ce 92       	st	-X, r12
    2e16:	12 97       	sbiw	r26, 0x02	; 2
    2e18:	15 96       	adiw	r26, 0x05	; 5
    2e1a:	7c 93       	st	X, r23
    2e1c:	6e 93       	st	-X, r22
    2e1e:	14 97       	sbiw	r26, 0x04	; 4
    2e20:	39 c1       	rjmp	.+626    	; 0x3094 <jsmn_parse+0x528>
    2e22:	db 01       	movw	r26, r22
    2e24:	11 96       	adiw	r26, 0x01	; 1
    2e26:	a6 15       	cp	r26, r6
    2e28:	b7 05       	cpc	r27, r7
    2e2a:	08 f0       	brcs	.+2      	; 0x2e2e <jsmn_parse+0x2c2>
    2e2c:	ba cf       	rjmp	.-140    	; 0x2da2 <jsmn_parse+0x236>
    2e2e:	b1 83       	std	Z+1, r27	; 0x01
    2e30:	a0 83       	st	Z, r26
    2e32:	aa 0d       	add	r26, r10
    2e34:	bb 1d       	adc	r27, r11
    2e36:	ac 91       	ld	r26, X
    2e38:	a6 36       	cpi	r26, 0x66	; 102
    2e3a:	09 f4       	brne	.+2      	; 0x2e3e <jsmn_parse+0x2d2>
    2e3c:	b2 cf       	rjmp	.-156    	; 0x2da2 <jsmn_parse+0x236>
    2e3e:	7c f4       	brge	.+30     	; 0x2e5e <jsmn_parse+0x2f2>
    2e40:	af 32       	cpi	r26, 0x2F	; 47
    2e42:	09 f4       	brne	.+2      	; 0x2e46 <jsmn_parse+0x2da>
    2e44:	ae cf       	rjmp	.-164    	; 0x2da2 <jsmn_parse+0x236>
    2e46:	24 f4       	brge	.+8      	; 0x2e50 <jsmn_parse+0x2e4>
    2e48:	a2 32       	cpi	r26, 0x22	; 34
    2e4a:	09 f0       	breq	.+2      	; 0x2e4e <jsmn_parse+0x2e2>
    2e4c:	82 c0       	rjmp	.+260    	; 0x2f52 <jsmn_parse+0x3e6>
    2e4e:	a9 cf       	rjmp	.-174    	; 0x2da2 <jsmn_parse+0x236>
    2e50:	ac 35       	cpi	r26, 0x5C	; 92
    2e52:	09 f4       	brne	.+2      	; 0x2e56 <jsmn_parse+0x2ea>
    2e54:	a6 cf       	rjmp	.-180    	; 0x2da2 <jsmn_parse+0x236>
    2e56:	a2 36       	cpi	r26, 0x62	; 98
    2e58:	09 f0       	breq	.+2      	; 0x2e5c <jsmn_parse+0x2f0>
    2e5a:	7b c0       	rjmp	.+246    	; 0x2f52 <jsmn_parse+0x3e6>
    2e5c:	a2 cf       	rjmp	.-188    	; 0x2da2 <jsmn_parse+0x236>
    2e5e:	a2 37       	cpi	r26, 0x72	; 114
    2e60:	09 f4       	brne	.+2      	; 0x2e64 <jsmn_parse+0x2f8>
    2e62:	9f cf       	rjmp	.-194    	; 0x2da2 <jsmn_parse+0x236>
    2e64:	24 f4       	brge	.+8      	; 0x2e6e <jsmn_parse+0x302>
    2e66:	ae 36       	cpi	r26, 0x6E	; 110
    2e68:	09 f0       	breq	.+2      	; 0x2e6c <jsmn_parse+0x300>
    2e6a:	73 c0       	rjmp	.+230    	; 0x2f52 <jsmn_parse+0x3e6>
    2e6c:	9a cf       	rjmp	.-204    	; 0x2da2 <jsmn_parse+0x236>
    2e6e:	a4 37       	cpi	r26, 0x74	; 116
    2e70:	09 f4       	brne	.+2      	; 0x2e74 <jsmn_parse+0x308>
    2e72:	97 cf       	rjmp	.-210    	; 0x2da2 <jsmn_parse+0x236>
    2e74:	a5 37       	cpi	r26, 0x75	; 117
    2e76:	09 f0       	breq	.+2      	; 0x2e7a <jsmn_parse+0x30e>
    2e78:	6c c0       	rjmp	.+216    	; 0x2f52 <jsmn_parse+0x3e6>
    2e7a:	6e 5f       	subi	r22, 0xFE	; 254
    2e7c:	7f 4f       	sbci	r23, 0xFF	; 255
    2e7e:	71 83       	std	Z+1, r23	; 0x01
    2e80:	60 83       	st	Z, r22
    2e82:	64 e0       	ldi	r22, 0x04	; 4
    2e84:	70 e0       	ldi	r23, 0x00	; 0
    2e86:	e0 80       	ld	r14, Z
    2e88:	f1 80       	ldd	r15, Z+1	; 0x01
    2e8a:	e6 14       	cp	r14, r6
    2e8c:	f7 04       	cpc	r15, r7
    2e8e:	38 f0       	brcs	.+14     	; 0x2e9e <jsmn_parse+0x332>
    2e90:	60 81       	ld	r22, Z
    2e92:	71 81       	ldd	r23, Z+1	; 0x01
    2e94:	61 50       	subi	r22, 0x01	; 1
    2e96:	71 09       	sbc	r23, r1
    2e98:	71 83       	std	Z+1, r23	; 0x01
    2e9a:	60 83       	st	Z, r22
    2e9c:	82 cf       	rjmp	.-252    	; 0x2da2 <jsmn_parse+0x236>
    2e9e:	d5 01       	movw	r26, r10
    2ea0:	ae 0d       	add	r26, r14
    2ea2:	bf 1d       	adc	r27, r15
    2ea4:	ac 91       	ld	r26, X
    2ea6:	aa 23       	and	r26, r26
    2ea8:	99 f3       	breq	.-26     	; 0x2e90 <jsmn_parse+0x324>
    2eaa:	b0 ed       	ldi	r27, 0xD0	; 208
    2eac:	ba 0f       	add	r27, r26
    2eae:	ba 30       	cpi	r27, 0x0A	; 10
    2eb0:	28 f0       	brcs	.+10     	; 0x2ebc <jsmn_parse+0x350>
    2eb2:	af 7d       	andi	r26, 0xDF	; 223
    2eb4:	a1 54       	subi	r26, 0x41	; 65
    2eb6:	a6 30       	cpi	r26, 0x06	; 6
    2eb8:	08 f0       	brcs	.+2      	; 0x2ebc <jsmn_parse+0x350>
    2eba:	4b c0       	rjmp	.+150    	; 0x2f52 <jsmn_parse+0x3e6>
    2ebc:	df ef       	ldi	r29, 0xFF	; 255
    2ebe:	ed 1a       	sub	r14, r29
    2ec0:	fd 0a       	sbc	r15, r29
    2ec2:	f1 82       	std	Z+1, r15	; 0x01
    2ec4:	e0 82       	st	Z, r14
    2ec6:	61 50       	subi	r22, 0x01	; 1
    2ec8:	71 09       	sbc	r23, r1
    2eca:	e9 f6       	brne	.-70     	; 0x2e86 <jsmn_parse+0x31a>
    2ecc:	e1 cf       	rjmp	.-62     	; 0x2e90 <jsmn_parse+0x324>
    2ece:	82 81       	ldd	r24, Z+2	; 0x02
    2ed0:	93 81       	ldd	r25, Z+3	; 0x03
    2ed2:	01 97       	sbiw	r24, 0x01	; 1
    2ed4:	3b c0       	rjmp	.+118    	; 0x2f4c <jsmn_parse+0x3e0>
    2ed6:	21 15       	cp	r18, r1
    2ed8:	31 05       	cpc	r19, r1
    2eda:	09 f4       	brne	.+2      	; 0x2ede <jsmn_parse+0x372>
    2edc:	b6 c0       	rjmp	.+364    	; 0x304a <jsmn_parse+0x4de>
    2ede:	a4 81       	ldd	r26, Z+4	; 0x04
    2ee0:	b5 81       	ldd	r27, Z+5	; 0x05
    2ee2:	83 e0       	ldi	r24, 0x03	; 3
    2ee4:	aa 0f       	add	r26, r26
    2ee6:	bb 1f       	adc	r27, r27
    2ee8:	8a 95       	dec	r24
    2eea:	e1 f7       	brne	.-8      	; 0x2ee4 <jsmn_parse+0x378>
    2eec:	a2 0f       	add	r26, r18
    2eee:	b3 1f       	adc	r27, r19
    2ef0:	8d 91       	ld	r24, X+
    2ef2:	9c 91       	ld	r25, X
    2ef4:	01 97       	sbiw	r24, 0x01	; 1
    2ef6:	02 97       	sbiw	r24, 0x02	; 2
    2ef8:	08 f4       	brcc	.+2      	; 0x2efc <jsmn_parse+0x390>
    2efa:	a7 c0       	rjmp	.+334    	; 0x304a <jsmn_parse+0x4de>
    2efc:	a2 81       	ldd	r26, Z+2	; 0x02
    2efe:	b3 81       	ldd	r27, Z+3	; 0x03
    2f00:	cd 01       	movw	r24, r26
    2f02:	01 97       	sbiw	r24, 0x01	; 1
    2f04:	a1 50       	subi	r26, 0x01	; 1
    2f06:	b0 4e       	sbci	r27, 0xE0	; 224
    2f08:	d3 e0       	ldi	r29, 0x03	; 3
    2f0a:	aa 0f       	add	r26, r26
    2f0c:	bb 1f       	adc	r27, r27
    2f0e:	da 95       	dec	r29
    2f10:	e1 f7       	brne	.-8      	; 0x2f0a <jsmn_parse+0x39e>
    2f12:	a2 0f       	add	r26, r18
    2f14:	b3 1f       	adc	r27, r19
    2f16:	02 c0       	rjmp	.+4      	; 0x2f1c <jsmn_parse+0x3b0>
    2f18:	01 97       	sbiw	r24, 0x01	; 1
    2f1a:	18 97       	sbiw	r26, 0x08	; 8
    2f1c:	97 fd       	sbrc	r25, 7
    2f1e:	95 c0       	rjmp	.+298    	; 0x304a <jsmn_parse+0x4de>
    2f20:	6d 91       	ld	r22, X+
    2f22:	7c 91       	ld	r23, X
    2f24:	11 97       	sbiw	r26, 0x01	; 1
    2f26:	61 50       	subi	r22, 0x01	; 1
    2f28:	71 09       	sbc	r23, r1
    2f2a:	62 30       	cpi	r22, 0x02	; 2
    2f2c:	71 05       	cpc	r23, r1
    2f2e:	a0 f7       	brcc	.-24     	; 0x2f18 <jsmn_parse+0x3ac>
    2f30:	12 96       	adiw	r26, 0x02	; 2
    2f32:	6d 91       	ld	r22, X+
    2f34:	7c 91       	ld	r23, X
    2f36:	13 97       	sbiw	r26, 0x03	; 3
    2f38:	6f 3f       	cpi	r22, 0xFF	; 255
    2f3a:	7f 4f       	sbci	r23, 0xFF	; 255
    2f3c:	69 f3       	breq	.-38     	; 0x2f18 <jsmn_parse+0x3ac>
    2f3e:	14 96       	adiw	r26, 0x04	; 4
    2f40:	6d 91       	ld	r22, X+
    2f42:	7c 91       	ld	r23, X
    2f44:	15 97       	sbiw	r26, 0x05	; 5
    2f46:	6f 3f       	cpi	r22, 0xFF	; 255
    2f48:	7f 4f       	sbci	r23, 0xFF	; 255
    2f4a:	31 f7       	brne	.-52     	; 0x2f18 <jsmn_parse+0x3ac>
    2f4c:	95 83       	std	Z+5, r25	; 0x05
    2f4e:	84 83       	std	Z+4, r24	; 0x04
    2f50:	7c c0       	rjmp	.+248    	; 0x304a <jsmn_parse+0x4de>
    2f52:	91 83       	std	Z+1, r25	; 0x01
    2f54:	80 83       	st	Z, r24
    2f56:	99 c0       	rjmp	.+306    	; 0x308a <jsmn_parse+0x51e>
    2f58:	d5 01       	movw	r26, r10
    2f5a:	a6 0f       	add	r26, r22
    2f5c:	b7 1f       	adc	r27, r23
    2f5e:	ac 91       	ld	r26, X
    2f60:	aa 23       	and	r26, r26
    2f62:	09 f1       	breq	.+66     	; 0x2fa6 <jsmn_parse+0x43a>
    2f64:	a0 32       	cpi	r26, 0x20	; 32
    2f66:	f9 f0       	breq	.+62     	; 0x2fa6 <jsmn_parse+0x43a>
    2f68:	a4 f4       	brge	.+40     	; 0x2f92 <jsmn_parse+0x426>
    2f6a:	a9 30       	cpi	r26, 0x09	; 9
    2f6c:	6c f4       	brge	.+26     	; 0x2f88 <jsmn_parse+0x41c>
    2f6e:	a0 52       	subi	r26, 0x20	; 32
    2f70:	af 35       	cpi	r26, 0x5F	; 95
    2f72:	78 f7       	brcc	.-34     	; 0x2f52 <jsmn_parse+0x3e6>
    2f74:	6f 5f       	subi	r22, 0xFF	; 255
    2f76:	7f 4f       	sbci	r23, 0xFF	; 255
    2f78:	71 83       	std	Z+1, r23	; 0x01
    2f7a:	60 83       	st	Z, r22
    2f7c:	60 81       	ld	r22, Z
    2f7e:	71 81       	ldd	r23, Z+1	; 0x01
    2f80:	66 15       	cp	r22, r6
    2f82:	77 05       	cpc	r23, r7
    2f84:	48 f3       	brcs	.-46     	; 0x2f58 <jsmn_parse+0x3ec>
    2f86:	0f c0       	rjmp	.+30     	; 0x2fa6 <jsmn_parse+0x43a>
    2f88:	ab 30       	cpi	r26, 0x0B	; 11
    2f8a:	6c f0       	brlt	.+26     	; 0x2fa6 <jsmn_parse+0x43a>
    2f8c:	ad 30       	cpi	r26, 0x0D	; 13
    2f8e:	79 f7       	brne	.-34     	; 0x2f6e <jsmn_parse+0x402>
    2f90:	0a c0       	rjmp	.+20     	; 0x2fa6 <jsmn_parse+0x43a>
    2f92:	aa 33       	cpi	r26, 0x3A	; 58
    2f94:	41 f0       	breq	.+16     	; 0x2fa6 <jsmn_parse+0x43a>
    2f96:	1c f4       	brge	.+6      	; 0x2f9e <jsmn_parse+0x432>
    2f98:	ac 32       	cpi	r26, 0x2C	; 44
    2f9a:	49 f7       	brne	.-46     	; 0x2f6e <jsmn_parse+0x402>
    2f9c:	04 c0       	rjmp	.+8      	; 0x2fa6 <jsmn_parse+0x43a>
    2f9e:	ad 35       	cpi	r26, 0x5D	; 93
    2fa0:	11 f0       	breq	.+4      	; 0x2fa6 <jsmn_parse+0x43a>
    2fa2:	ad 37       	cpi	r26, 0x7D	; 125
    2fa4:	21 f7       	brne	.-56     	; 0x2f6e <jsmn_parse+0x402>
    2fa6:	21 15       	cp	r18, r1
    2fa8:	31 05       	cpc	r19, r1
    2faa:	79 f1       	breq	.+94     	; 0x300a <jsmn_parse+0x49e>
    2fac:	a2 81       	ldd	r26, Z+2	; 0x02
    2fae:	b3 81       	ldd	r27, Z+3	; 0x03
    2fb0:	a8 15       	cp	r26, r8
    2fb2:	b9 05       	cpc	r27, r9
    2fb4:	20 f0       	brcs	.+8      	; 0x2fbe <jsmn_parse+0x452>
    2fb6:	91 83       	std	Z+1, r25	; 0x01
    2fb8:	80 83       	st	Z, r24
    2fba:	8f ef       	ldi	r24, 0xFF	; 255
    2fbc:	69 c0       	rjmp	.+210    	; 0x3090 <jsmn_parse+0x524>
    2fbe:	7d 01       	movw	r14, r26
    2fc0:	cf ef       	ldi	r28, 0xFF	; 255
    2fc2:	ec 1a       	sub	r14, r28
    2fc4:	fc 0a       	sbc	r15, r28
    2fc6:	f3 82       	std	Z+3, r15	; 0x03
    2fc8:	e2 82       	std	Z+2, r14	; 0x02
    2fca:	c3 e0       	ldi	r28, 0x03	; 3
    2fcc:	aa 0f       	add	r26, r26
    2fce:	bb 1f       	adc	r27, r27
    2fd0:	ca 95       	dec	r28
    2fd2:	e1 f7       	brne	.-8      	; 0x2fcc <jsmn_parse+0x460>
    2fd4:	a2 0f       	add	r26, r18
    2fd6:	b3 1f       	adc	r27, r19
    2fd8:	15 96       	adiw	r26, 0x05	; 5
    2fda:	1c 93       	st	X, r17
    2fdc:	0e 93       	st	-X, r16
    2fde:	14 97       	sbiw	r26, 0x04	; 4
    2fe0:	13 96       	adiw	r26, 0x03	; 3
    2fe2:	1c 93       	st	X, r17
    2fe4:	0e 93       	st	-X, r16
    2fe6:	12 97       	sbiw	r26, 0x02	; 2
    2fe8:	17 96       	adiw	r26, 0x07	; 7
    2fea:	1c 92       	st	X, r1
    2fec:	1e 92       	st	-X, r1
    2fee:	16 97       	sbiw	r26, 0x06	; 6
    2ff0:	10 97       	sbiw	r26, 0x00	; 0
    2ff2:	09 f3       	breq	.-62     	; 0x2fb6 <jsmn_parse+0x44a>
    2ff4:	11 96       	adiw	r26, 0x01	; 1
    2ff6:	1c 92       	st	X, r1
    2ff8:	1e 92       	st	-X, r1
    2ffa:	13 96       	adiw	r26, 0x03	; 3
    2ffc:	9c 93       	st	X, r25
    2ffe:	8e 93       	st	-X, r24
    3000:	12 97       	sbiw	r26, 0x02	; 2
    3002:	15 96       	adiw	r26, 0x05	; 5
    3004:	7c 93       	st	X, r23
    3006:	6e 93       	st	-X, r22
    3008:	14 97       	sbiw	r26, 0x04	; 4
    300a:	61 50       	subi	r22, 0x01	; 1
    300c:	71 09       	sbc	r23, r1
    300e:	71 83       	std	Z+1, r23	; 0x01
    3010:	60 83       	st	Z, r22
    3012:	8f ef       	ldi	r24, 0xFF	; 255
    3014:	28 1a       	sub	r2, r24
    3016:	38 0a       	sbc	r3, r24
    3018:	a4 81       	ldd	r26, Z+4	; 0x04
    301a:	b5 81       	ldd	r27, Z+5	; 0x05
    301c:	af 3f       	cpi	r26, 0xFF	; 255
    301e:	cf ef       	ldi	r28, 0xFF	; 255
    3020:	bc 07       	cpc	r27, r28
    3022:	99 f0       	breq	.+38     	; 0x304a <jsmn_parse+0x4de>
    3024:	21 15       	cp	r18, r1
    3026:	31 05       	cpc	r19, r1
    3028:	81 f0       	breq	.+32     	; 0x304a <jsmn_parse+0x4de>
    302a:	73 e0       	ldi	r23, 0x03	; 3
    302c:	aa 0f       	add	r26, r26
    302e:	bb 1f       	adc	r27, r27
    3030:	7a 95       	dec	r23
    3032:	e1 f7       	brne	.-8      	; 0x302c <jsmn_parse+0x4c0>
    3034:	a2 0f       	add	r26, r18
    3036:	b3 1f       	adc	r27, r19
    3038:	16 96       	adiw	r26, 0x06	; 6
    303a:	8d 91       	ld	r24, X+
    303c:	9c 91       	ld	r25, X
    303e:	17 97       	sbiw	r26, 0x07	; 7
    3040:	01 96       	adiw	r24, 0x01	; 1
    3042:	17 96       	adiw	r26, 0x07	; 7
    3044:	9c 93       	st	X, r25
    3046:	8e 93       	st	-X, r24
    3048:	16 97       	sbiw	r26, 0x06	; 6
    304a:	80 81       	ld	r24, Z
    304c:	91 81       	ldd	r25, Z+1	; 0x01
    304e:	01 96       	adiw	r24, 0x01	; 1
    3050:	91 83       	std	Z+1, r25	; 0x01
    3052:	80 83       	st	Z, r24
    3054:	a8 cd       	rjmp	.-1200   	; 0x2ba6 <jsmn_parse+0x3a>
    3056:	ba 01       	movw	r22, r20
    3058:	62 0f       	add	r22, r18
    305a:	73 1f       	adc	r23, r19
    305c:	fb 01       	movw	r30, r22
    305e:	36 97       	sbiw	r30, 0x06	; 6
    3060:	01 90       	ld	r0, Z+
    3062:	f0 81       	ld	r31, Z
    3064:	e0 2d       	mov	r30, r0
    3066:	31 96       	adiw	r30, 0x01	; 1
    3068:	31 f4       	brne	.+12     	; 0x3076 <jsmn_parse+0x50a>
    306a:	01 97       	sbiw	r24, 0x01	; 1
    306c:	28 50       	subi	r18, 0x08	; 8
    306e:	31 09       	sbc	r19, r1
    3070:	97 ff       	sbrs	r25, 7
    3072:	f1 cf       	rjmp	.-30     	; 0x3056 <jsmn_parse+0x4ea>
    3074:	08 c0       	rjmp	.+16     	; 0x3086 <jsmn_parse+0x51a>
    3076:	fb 01       	movw	r30, r22
    3078:	34 97       	sbiw	r30, 0x04	; 4
    307a:	60 81       	ld	r22, Z
    307c:	71 81       	ldd	r23, Z+1	; 0x01
    307e:	6f 3f       	cpi	r22, 0xFF	; 255
    3080:	7f 4f       	sbci	r23, 0xFF	; 255
    3082:	99 f7       	brne	.-26     	; 0x306a <jsmn_parse+0x4fe>
    3084:	04 c0       	rjmp	.+8      	; 0x308e <jsmn_parse+0x522>
    3086:	c1 01       	movw	r24, r2
    3088:	10 c0       	rjmp	.+32     	; 0x30aa <jsmn_parse+0x53e>
    308a:	8e ef       	ldi	r24, 0xFE	; 254
    308c:	01 c0       	rjmp	.+2      	; 0x3090 <jsmn_parse+0x524>
    308e:	8d ef       	ldi	r24, 0xFD	; 253
    3090:	9f ef       	ldi	r25, 0xFF	; 255
    3092:	0b c0       	rjmp	.+22     	; 0x30aa <jsmn_parse+0x53e>
    3094:	4f ef       	ldi	r20, 0xFF	; 255
    3096:	24 1a       	sub	r2, r20
    3098:	34 0a       	sbc	r3, r20
    309a:	a4 81       	ldd	r26, Z+4	; 0x04
    309c:	b5 81       	ldd	r27, Z+5	; 0x05
    309e:	af 3f       	cpi	r26, 0xFF	; 255
    30a0:	5f ef       	ldi	r21, 0xFF	; 255
    30a2:	b5 07       	cpc	r27, r21
    30a4:	09 f0       	breq	.+2      	; 0x30a8 <jsmn_parse+0x53c>
    30a6:	be cf       	rjmp	.-132    	; 0x3024 <jsmn_parse+0x4b8>
    30a8:	d0 cf       	rjmp	.-96     	; 0x304a <jsmn_parse+0x4de>
    30aa:	df 91       	pop	r29
    30ac:	cf 91       	pop	r28
    30ae:	1f 91       	pop	r17
    30b0:	0f 91       	pop	r16
    30b2:	ff 90       	pop	r15
    30b4:	ef 90       	pop	r14
    30b6:	df 90       	pop	r13
    30b8:	cf 90       	pop	r12
    30ba:	bf 90       	pop	r11
    30bc:	af 90       	pop	r10
    30be:	9f 90       	pop	r9
    30c0:	8f 90       	pop	r8
    30c2:	7f 90       	pop	r7
    30c4:	6f 90       	pop	r6
    30c6:	5f 90       	pop	r5
    30c8:	4f 90       	pop	r4
    30ca:	3f 90       	pop	r3
    30cc:	2f 90       	pop	r2
    30ce:	08 95       	ret

000030d0 <jsmn_init>:
    30d0:	fc 01       	movw	r30, r24
    30d2:	11 82       	std	Z+1, r1	; 0x01
    30d4:	10 82       	st	Z, r1
    30d6:	13 82       	std	Z+3, r1	; 0x03
    30d8:	12 82       	std	Z+2, r1	; 0x02
    30da:	8f ef       	ldi	r24, 0xFF	; 255
    30dc:	9f ef       	ldi	r25, 0xFF	; 255
    30de:	95 83       	std	Z+5, r25	; 0x05
    30e0:	84 83       	std	Z+4, r24	; 0x04
    30e2:	08 95       	ret

000030e4 <main>:
    30e4:	20 e0       	ldi	r18, 0x00	; 0
    30e6:	30 e0       	ldi	r19, 0x00	; 0
    30e8:	80 ef       	ldi	r24, 0xF0	; 240
    30ea:	90 e0       	ldi	r25, 0x00	; 0
    30ec:	8e bf       	out	0x3e, r24	; 62
    30ee:	2d bf       	out	0x3d, r18	; 61
    30f0:	0e 94 c3 04 	call	0x986	; 0x986 <go>

000030f4 <__mulshisi3>:
    30f4:	b7 ff       	sbrs	r27, 7
    30f6:	0c 94 b7 18 	jmp	0x316e	; 0x316e <__muluhisi3>

000030fa <__mulohisi3>:
    30fa:	0e 94 b7 18 	call	0x316e	; 0x316e <__muluhisi3>
    30fe:	82 1b       	sub	r24, r18
    3100:	93 0b       	sbc	r25, r19
    3102:	08 95       	ret

00003104 <__mulsi3>:
    3104:	db 01       	movw	r26, r22
    3106:	8f 93       	push	r24
    3108:	9f 93       	push	r25
    310a:	0e 94 b7 18 	call	0x316e	; 0x316e <__muluhisi3>
    310e:	bf 91       	pop	r27
    3110:	af 91       	pop	r26
    3112:	a2 9f       	mul	r26, r18
    3114:	80 0d       	add	r24, r0
    3116:	91 1d       	adc	r25, r1
    3118:	a3 9f       	mul	r26, r19
    311a:	90 0d       	add	r25, r0
    311c:	b2 9f       	mul	r27, r18
    311e:	90 0d       	add	r25, r0
    3120:	11 24       	eor	r1, r1
    3122:	08 95       	ret

00003124 <__divmodsi4>:
    3124:	05 2e       	mov	r0, r21
    3126:	97 fb       	bst	r25, 7
    3128:	1e f4       	brtc	.+6      	; 0x3130 <__divmodsi4+0xc>
    312a:	00 94       	com	r0
    312c:	0e 94 a9 18 	call	0x3152	; 0x3152 <__negsi2>
    3130:	57 fd       	sbrc	r21, 7
    3132:	07 d0       	rcall	.+14     	; 0x3142 <__divmodsi4_neg2>
    3134:	0e 94 c2 18 	call	0x3184	; 0x3184 <__udivmodsi4>
    3138:	07 fc       	sbrc	r0, 7
    313a:	03 d0       	rcall	.+6      	; 0x3142 <__divmodsi4_neg2>
    313c:	4e f4       	brtc	.+18     	; 0x3150 <__divmodsi4_exit>
    313e:	0c 94 a9 18 	jmp	0x3152	; 0x3152 <__negsi2>

00003142 <__divmodsi4_neg2>:
    3142:	50 95       	com	r21
    3144:	40 95       	com	r20
    3146:	30 95       	com	r19
    3148:	21 95       	neg	r18
    314a:	3f 4f       	sbci	r19, 0xFF	; 255
    314c:	4f 4f       	sbci	r20, 0xFF	; 255
    314e:	5f 4f       	sbci	r21, 0xFF	; 255

00003150 <__divmodsi4_exit>:
    3150:	08 95       	ret

00003152 <__negsi2>:
    3152:	90 95       	com	r25
    3154:	80 95       	com	r24
    3156:	70 95       	com	r23
    3158:	61 95       	neg	r22
    315a:	7f 4f       	sbci	r23, 0xFF	; 255
    315c:	8f 4f       	sbci	r24, 0xFF	; 255
    315e:	9f 4f       	sbci	r25, 0xFF	; 255
    3160:	08 95       	ret

00003162 <__tablejump2__>:
    3162:	ee 0f       	add	r30, r30
    3164:	ff 1f       	adc	r31, r31

00003166 <__tablejump__>:
    3166:	05 90       	lpm	r0, Z+
    3168:	f4 91       	lpm	r31, Z
    316a:	e0 2d       	mov	r30, r0
    316c:	09 94       	ijmp

0000316e <__muluhisi3>:
    316e:	0e 94 e4 18 	call	0x31c8	; 0x31c8 <__umulhisi3>
    3172:	a5 9f       	mul	r26, r21
    3174:	90 0d       	add	r25, r0
    3176:	b4 9f       	mul	r27, r20
    3178:	90 0d       	add	r25, r0
    317a:	a4 9f       	mul	r26, r20
    317c:	80 0d       	add	r24, r0
    317e:	91 1d       	adc	r25, r1
    3180:	11 24       	eor	r1, r1
    3182:	08 95       	ret

00003184 <__udivmodsi4>:
    3184:	a1 e2       	ldi	r26, 0x21	; 33
    3186:	1a 2e       	mov	r1, r26
    3188:	aa 1b       	sub	r26, r26
    318a:	bb 1b       	sub	r27, r27
    318c:	fd 01       	movw	r30, r26
    318e:	0d c0       	rjmp	.+26     	; 0x31aa <__udivmodsi4_ep>

00003190 <__udivmodsi4_loop>:
    3190:	aa 1f       	adc	r26, r26
    3192:	bb 1f       	adc	r27, r27
    3194:	ee 1f       	adc	r30, r30
    3196:	ff 1f       	adc	r31, r31
    3198:	a2 17       	cp	r26, r18
    319a:	b3 07       	cpc	r27, r19
    319c:	e4 07       	cpc	r30, r20
    319e:	f5 07       	cpc	r31, r21
    31a0:	20 f0       	brcs	.+8      	; 0x31aa <__udivmodsi4_ep>
    31a2:	a2 1b       	sub	r26, r18
    31a4:	b3 0b       	sbc	r27, r19
    31a6:	e4 0b       	sbc	r30, r20
    31a8:	f5 0b       	sbc	r31, r21

000031aa <__udivmodsi4_ep>:
    31aa:	66 1f       	adc	r22, r22
    31ac:	77 1f       	adc	r23, r23
    31ae:	88 1f       	adc	r24, r24
    31b0:	99 1f       	adc	r25, r25
    31b2:	1a 94       	dec	r1
    31b4:	69 f7       	brne	.-38     	; 0x3190 <__udivmodsi4_loop>
    31b6:	60 95       	com	r22
    31b8:	70 95       	com	r23
    31ba:	80 95       	com	r24
    31bc:	90 95       	com	r25
    31be:	9b 01       	movw	r18, r22
    31c0:	ac 01       	movw	r20, r24
    31c2:	bd 01       	movw	r22, r26
    31c4:	cf 01       	movw	r24, r30
    31c6:	08 95       	ret

000031c8 <__umulhisi3>:
    31c8:	a2 9f       	mul	r26, r18
    31ca:	b0 01       	movw	r22, r0
    31cc:	b3 9f       	mul	r27, r19
    31ce:	c0 01       	movw	r24, r0
    31d0:	a3 9f       	mul	r26, r19
    31d2:	70 0d       	add	r23, r0
    31d4:	81 1d       	adc	r24, r1
    31d6:	11 24       	eor	r1, r1
    31d8:	91 1d       	adc	r25, r1
    31da:	b2 9f       	mul	r27, r18
    31dc:	70 0d       	add	r23, r0
    31de:	81 1d       	adc	r24, r1
    31e0:	11 24       	eor	r1, r1
    31e2:	91 1d       	adc	r25, r1
    31e4:	08 95       	ret

000031e6 <calloc>:
    31e6:	0f 93       	push	r16
    31e8:	1f 93       	push	r17
    31ea:	cf 93       	push	r28
    31ec:	df 93       	push	r29
    31ee:	86 9f       	mul	r24, r22
    31f0:	80 01       	movw	r16, r0
    31f2:	87 9f       	mul	r24, r23
    31f4:	10 0d       	add	r17, r0
    31f6:	96 9f       	mul	r25, r22
    31f8:	10 0d       	add	r17, r0
    31fa:	11 24       	eor	r1, r1
    31fc:	c8 01       	movw	r24, r16
    31fe:	0e 94 0f 19 	call	0x321e	; 0x321e <malloc>
    3202:	ec 01       	movw	r28, r24
    3204:	00 97       	sbiw	r24, 0x00	; 0
    3206:	29 f0       	breq	.+10     	; 0x3212 <calloc+0x2c>
    3208:	a8 01       	movw	r20, r16
    320a:	60 e0       	ldi	r22, 0x00	; 0
    320c:	70 e0       	ldi	r23, 0x00	; 0
    320e:	0e 94 10 1b 	call	0x3620	; 0x3620 <memset>
    3212:	ce 01       	movw	r24, r28
    3214:	df 91       	pop	r29
    3216:	cf 91       	pop	r28
    3218:	1f 91       	pop	r17
    321a:	0f 91       	pop	r16
    321c:	08 95       	ret

0000321e <malloc>:
    321e:	cf 93       	push	r28
    3220:	df 93       	push	r29
    3222:	82 30       	cpi	r24, 0x02	; 2
    3224:	91 05       	cpc	r25, r1
    3226:	10 f4       	brcc	.+4      	; 0x322c <malloc+0xe>
    3228:	82 e0       	ldi	r24, 0x02	; 2
    322a:	90 e0       	ldi	r25, 0x00	; 0
    322c:	e0 91 8a 09 	lds	r30, 0x098A
    3230:	f0 91 8b 09 	lds	r31, 0x098B
    3234:	20 e0       	ldi	r18, 0x00	; 0
    3236:	30 e0       	ldi	r19, 0x00	; 0
    3238:	a0 e0       	ldi	r26, 0x00	; 0
    323a:	b0 e0       	ldi	r27, 0x00	; 0
    323c:	30 97       	sbiw	r30, 0x00	; 0
    323e:	39 f1       	breq	.+78     	; 0x328e <malloc+0x70>
    3240:	40 81       	ld	r20, Z
    3242:	51 81       	ldd	r21, Z+1	; 0x01
    3244:	48 17       	cp	r20, r24
    3246:	59 07       	cpc	r21, r25
    3248:	b8 f0       	brcs	.+46     	; 0x3278 <malloc+0x5a>
    324a:	48 17       	cp	r20, r24
    324c:	59 07       	cpc	r21, r25
    324e:	71 f4       	brne	.+28     	; 0x326c <malloc+0x4e>
    3250:	82 81       	ldd	r24, Z+2	; 0x02
    3252:	93 81       	ldd	r25, Z+3	; 0x03
    3254:	10 97       	sbiw	r26, 0x00	; 0
    3256:	29 f0       	breq	.+10     	; 0x3262 <malloc+0x44>
    3258:	13 96       	adiw	r26, 0x03	; 3
    325a:	9c 93       	st	X, r25
    325c:	8e 93       	st	-X, r24
    325e:	12 97       	sbiw	r26, 0x02	; 2
    3260:	2c c0       	rjmp	.+88     	; 0x32ba <malloc+0x9c>
    3262:	90 93 8b 09 	sts	0x098B, r25
    3266:	80 93 8a 09 	sts	0x098A, r24
    326a:	27 c0       	rjmp	.+78     	; 0x32ba <malloc+0x9c>
    326c:	21 15       	cp	r18, r1
    326e:	31 05       	cpc	r19, r1
    3270:	31 f0       	breq	.+12     	; 0x327e <malloc+0x60>
    3272:	42 17       	cp	r20, r18
    3274:	53 07       	cpc	r21, r19
    3276:	18 f0       	brcs	.+6      	; 0x327e <malloc+0x60>
    3278:	a9 01       	movw	r20, r18
    327a:	db 01       	movw	r26, r22
    327c:	01 c0       	rjmp	.+2      	; 0x3280 <malloc+0x62>
    327e:	ef 01       	movw	r28, r30
    3280:	9a 01       	movw	r18, r20
    3282:	bd 01       	movw	r22, r26
    3284:	df 01       	movw	r26, r30
    3286:	02 80       	ldd	r0, Z+2	; 0x02
    3288:	f3 81       	ldd	r31, Z+3	; 0x03
    328a:	e0 2d       	mov	r30, r0
    328c:	d7 cf       	rjmp	.-82     	; 0x323c <malloc+0x1e>
    328e:	21 15       	cp	r18, r1
    3290:	31 05       	cpc	r19, r1
    3292:	f9 f0       	breq	.+62     	; 0x32d2 <malloc+0xb4>
    3294:	28 1b       	sub	r18, r24
    3296:	39 0b       	sbc	r19, r25
    3298:	24 30       	cpi	r18, 0x04	; 4
    329a:	31 05       	cpc	r19, r1
    329c:	80 f4       	brcc	.+32     	; 0x32be <malloc+0xa0>
    329e:	8a 81       	ldd	r24, Y+2	; 0x02
    32a0:	9b 81       	ldd	r25, Y+3	; 0x03
    32a2:	61 15       	cp	r22, r1
    32a4:	71 05       	cpc	r23, r1
    32a6:	21 f0       	breq	.+8      	; 0x32b0 <malloc+0x92>
    32a8:	fb 01       	movw	r30, r22
    32aa:	93 83       	std	Z+3, r25	; 0x03
    32ac:	82 83       	std	Z+2, r24	; 0x02
    32ae:	04 c0       	rjmp	.+8      	; 0x32b8 <malloc+0x9a>
    32b0:	90 93 8b 09 	sts	0x098B, r25
    32b4:	80 93 8a 09 	sts	0x098A, r24
    32b8:	fe 01       	movw	r30, r28
    32ba:	32 96       	adiw	r30, 0x02	; 2
    32bc:	44 c0       	rjmp	.+136    	; 0x3346 <malloc+0x128>
    32be:	fe 01       	movw	r30, r28
    32c0:	e2 0f       	add	r30, r18
    32c2:	f3 1f       	adc	r31, r19
    32c4:	81 93       	st	Z+, r24
    32c6:	91 93       	st	Z+, r25
    32c8:	22 50       	subi	r18, 0x02	; 2
    32ca:	31 09       	sbc	r19, r1
    32cc:	39 83       	std	Y+1, r19	; 0x01
    32ce:	28 83       	st	Y, r18
    32d0:	3a c0       	rjmp	.+116    	; 0x3346 <malloc+0x128>
    32d2:	20 91 88 09 	lds	r18, 0x0988
    32d6:	30 91 89 09 	lds	r19, 0x0989
    32da:	23 2b       	or	r18, r19
    32dc:	41 f4       	brne	.+16     	; 0x32ee <malloc+0xd0>
    32de:	20 91 88 01 	lds	r18, 0x0188
    32e2:	30 91 89 01 	lds	r19, 0x0189
    32e6:	30 93 89 09 	sts	0x0989, r19
    32ea:	20 93 88 09 	sts	0x0988, r18
    32ee:	20 91 86 01 	lds	r18, 0x0186
    32f2:	30 91 87 01 	lds	r19, 0x0187
    32f6:	21 15       	cp	r18, r1
    32f8:	31 05       	cpc	r19, r1
    32fa:	41 f4       	brne	.+16     	; 0x330c <malloc+0xee>
    32fc:	2d b7       	in	r18, 0x3d	; 61
    32fe:	3e b7       	in	r19, 0x3e	; 62
    3300:	40 91 8a 01 	lds	r20, 0x018A
    3304:	50 91 8b 01 	lds	r21, 0x018B
    3308:	24 1b       	sub	r18, r20
    330a:	35 0b       	sbc	r19, r21
    330c:	e0 91 88 09 	lds	r30, 0x0988
    3310:	f0 91 89 09 	lds	r31, 0x0989
    3314:	e2 17       	cp	r30, r18
    3316:	f3 07       	cpc	r31, r19
    3318:	a0 f4       	brcc	.+40     	; 0x3342 <malloc+0x124>
    331a:	2e 1b       	sub	r18, r30
    331c:	3f 0b       	sbc	r19, r31
    331e:	28 17       	cp	r18, r24
    3320:	39 07       	cpc	r19, r25
    3322:	78 f0       	brcs	.+30     	; 0x3342 <malloc+0x124>
    3324:	ac 01       	movw	r20, r24
    3326:	4e 5f       	subi	r20, 0xFE	; 254
    3328:	5f 4f       	sbci	r21, 0xFF	; 255
    332a:	24 17       	cp	r18, r20
    332c:	35 07       	cpc	r19, r21
    332e:	48 f0       	brcs	.+18     	; 0x3342 <malloc+0x124>
    3330:	4e 0f       	add	r20, r30
    3332:	5f 1f       	adc	r21, r31
    3334:	50 93 89 09 	sts	0x0989, r21
    3338:	40 93 88 09 	sts	0x0988, r20
    333c:	81 93       	st	Z+, r24
    333e:	91 93       	st	Z+, r25
    3340:	02 c0       	rjmp	.+4      	; 0x3346 <malloc+0x128>
    3342:	e0 e0       	ldi	r30, 0x00	; 0
    3344:	f0 e0       	ldi	r31, 0x00	; 0
    3346:	cf 01       	movw	r24, r30
    3348:	df 91       	pop	r29
    334a:	cf 91       	pop	r28
    334c:	08 95       	ret

0000334e <free>:
    334e:	cf 93       	push	r28
    3350:	df 93       	push	r29
    3352:	00 97       	sbiw	r24, 0x00	; 0
    3354:	09 f4       	brne	.+2      	; 0x3358 <free+0xa>
    3356:	87 c0       	rjmp	.+270    	; 0x3466 <free+0x118>
    3358:	fc 01       	movw	r30, r24
    335a:	32 97       	sbiw	r30, 0x02	; 2
    335c:	13 82       	std	Z+3, r1	; 0x03
    335e:	12 82       	std	Z+2, r1	; 0x02
    3360:	c0 91 8a 09 	lds	r28, 0x098A
    3364:	d0 91 8b 09 	lds	r29, 0x098B
    3368:	20 97       	sbiw	r28, 0x00	; 0
    336a:	81 f4       	brne	.+32     	; 0x338c <free+0x3e>
    336c:	20 81       	ld	r18, Z
    336e:	31 81       	ldd	r19, Z+1	; 0x01
    3370:	28 0f       	add	r18, r24
    3372:	39 1f       	adc	r19, r25
    3374:	80 91 88 09 	lds	r24, 0x0988
    3378:	90 91 89 09 	lds	r25, 0x0989
    337c:	82 17       	cp	r24, r18
    337e:	93 07       	cpc	r25, r19
    3380:	79 f5       	brne	.+94     	; 0x33e0 <free+0x92>
    3382:	f0 93 89 09 	sts	0x0989, r31
    3386:	e0 93 88 09 	sts	0x0988, r30
    338a:	6d c0       	rjmp	.+218    	; 0x3466 <free+0x118>
    338c:	de 01       	movw	r26, r28
    338e:	20 e0       	ldi	r18, 0x00	; 0
    3390:	30 e0       	ldi	r19, 0x00	; 0
    3392:	ae 17       	cp	r26, r30
    3394:	bf 07       	cpc	r27, r31
    3396:	50 f4       	brcc	.+20     	; 0x33ac <free+0x5e>
    3398:	12 96       	adiw	r26, 0x02	; 2
    339a:	4d 91       	ld	r20, X+
    339c:	5c 91       	ld	r21, X
    339e:	13 97       	sbiw	r26, 0x03	; 3
    33a0:	9d 01       	movw	r18, r26
    33a2:	41 15       	cp	r20, r1
    33a4:	51 05       	cpc	r21, r1
    33a6:	09 f1       	breq	.+66     	; 0x33ea <free+0x9c>
    33a8:	da 01       	movw	r26, r20
    33aa:	f3 cf       	rjmp	.-26     	; 0x3392 <free+0x44>
    33ac:	b3 83       	std	Z+3, r27	; 0x03
    33ae:	a2 83       	std	Z+2, r26	; 0x02
    33b0:	40 81       	ld	r20, Z
    33b2:	51 81       	ldd	r21, Z+1	; 0x01
    33b4:	84 0f       	add	r24, r20
    33b6:	95 1f       	adc	r25, r21
    33b8:	8a 17       	cp	r24, r26
    33ba:	9b 07       	cpc	r25, r27
    33bc:	71 f4       	brne	.+28     	; 0x33da <free+0x8c>
    33be:	8d 91       	ld	r24, X+
    33c0:	9c 91       	ld	r25, X
    33c2:	11 97       	sbiw	r26, 0x01	; 1
    33c4:	84 0f       	add	r24, r20
    33c6:	95 1f       	adc	r25, r21
    33c8:	02 96       	adiw	r24, 0x02	; 2
    33ca:	91 83       	std	Z+1, r25	; 0x01
    33cc:	80 83       	st	Z, r24
    33ce:	12 96       	adiw	r26, 0x02	; 2
    33d0:	8d 91       	ld	r24, X+
    33d2:	9c 91       	ld	r25, X
    33d4:	13 97       	sbiw	r26, 0x03	; 3
    33d6:	93 83       	std	Z+3, r25	; 0x03
    33d8:	82 83       	std	Z+2, r24	; 0x02
    33da:	21 15       	cp	r18, r1
    33dc:	31 05       	cpc	r19, r1
    33de:	29 f4       	brne	.+10     	; 0x33ea <free+0x9c>
    33e0:	f0 93 8b 09 	sts	0x098B, r31
    33e4:	e0 93 8a 09 	sts	0x098A, r30
    33e8:	3e c0       	rjmp	.+124    	; 0x3466 <free+0x118>
    33ea:	d9 01       	movw	r26, r18
    33ec:	13 96       	adiw	r26, 0x03	; 3
